
./.zig-cache/o/30a98274d04d5312724a81784770b213/gpio_input:     file format elf32-littleriscv


Disassembly of section .text:

08000000 <debug.FullPanic((function 'defaultPanic')).integerOverflow>:
 8000000:	1141                	addi	sp,sp,-16
 8000002:	c606                	sw	ra,12(sp)
 8000004:	c422                	sw	s0,8(sp)
 8000006:	0800                	addi	s0,sp,16
 8000008:	fe142823          	sw	ra,-16(s0)
 800000c:	4585                	li	a1,1
 800000e:	feb40a23          	sb	a1,-12(s0)
 8000012:	080005b7          	lui	a1,0x8000
 8000016:	54458593          	addi	a1,a1,1348 # 8000544 <__anon_2776>
 800001a:	4641                	li	a2,16
 800001c:	ff040693          	addi	a3,s0,-16
 8000020:	00000097          	auipc	ra,0x0
 8000024:	008080e7          	jalr	8(ra) # 8000028 <debug.defaultPanic>

08000028 <debug.defaultPanic>:
 8000028:	1121                	addi	sp,sp,-24
 800002a:	ca06                	sw	ra,20(sp)
 800002c:	c822                	sw	s0,16(sp)
 800002e:	0820                	addi	s0,sp,24
 8000030:	fec42623          	sw	a2,-20(s0)
 8000034:	feb42423          	sw	a1,-24(s0)
 8000038:	fec42a23          	sw	a2,-12(s0)
 800003c:	feb42823          	sw	a1,-16(s0)
	...

08000042 <debug.FullPanic((function 'defaultPanic')).corruptSwitch>:
 8000042:	1141                	addi	sp,sp,-16
 8000044:	c606                	sw	ra,12(sp)
 8000046:	c422                	sw	s0,8(sp)
 8000048:	0800                	addi	s0,sp,16
 800004a:	fe142823          	sw	ra,-16(s0)
 800004e:	4585                	li	a1,1
 8000050:	feb40a23          	sb	a1,-12(s0)
 8000054:	080005b7          	lui	a1,0x8000
 8000058:	55558593          	addi	a1,a1,1365 # 8000555 <__anon_5636>
 800005c:	465d                	li	a2,23
 800005e:	ff040693          	addi	a3,s0,-16
 8000062:	00000097          	auipc	ra,0x0
 8000066:	fc6080e7          	jalr	-58(ra) # 8000028 <debug.defaultPanic>

0800006a <_start>:
 800006a:	f6c10113          	addi	sp,sp,-148
 800006e:	c906                	sw	ra,144(sp)
 8000070:	c722                	sw	s0,140(sp)
 8000072:	0940                	addi	s0,sp,148
 8000074:	02000513          	li	a0,32
 8000078:	fea42a23          	sw	a0,-12(s0)
 800007c:	f6c40513          	addi	a0,s0,-148
 8000080:	fea42823          	sw	a0,-16(s0)
 8000084:	4501                	li	a0,0
 8000086:	fea42623          	sw	a0,-20(s0)
 800008a:	fec40513          	addi	a0,s0,-20
 800008e:	00000097          	auipc	ra,0x0
 8000092:	008080e7          	jalr	8(ra) # 8000096 <main.main>

08000096 <main.main>:
 8000096:	1101                	addi	sp,sp,-32
 8000098:	ce06                	sw	ra,28(sp)
 800009a:	cc22                	sw	s0,24(sp)
 800009c:	1000                	addi	s0,sp,32
 800009e:	fea42023          	sw	a0,-32(s0)
 80000a2:	080005b7          	lui	a1,0x8000
 80000a6:	57058593          	addi	a1,a1,1392 # 8000570 <__anon_5636+0x1b>
 80000aa:	00000097          	auipc	ra,0x0
 80000ae:	0c6080e7          	jalr	198(ra) # 8000170 <system.system.init>
 80000b2:	fe042503          	lw	a0,-32(s0)
 80000b6:	00000097          	auipc	ra,0x0
 80000ba:	1bc080e7          	jalr	444(ra) # 8000272 <hal.gpio.enableAllClocks>
 80000be:	fe042583          	lw	a1,-32(s0)
 80000c2:	fee40513          	addi	a0,s0,-18
 80000c6:	00000097          	auipc	ra,0x0
 80000ca:	1d8080e7          	jalr	472(ra) # 800029e <hal.gpio.pin__anon_8047>
 80000ce:	fe042583          	lw	a1,-32(s0)
 80000d2:	fef44503          	lbu	a0,-17(s0)
 80000d6:	0522                	slli	a0,a0,0x8
 80000d8:	fee44603          	lbu	a2,-18(s0)
 80000dc:	8d51                	or	a0,a0,a2
 80000de:	fea41823          	sh	a0,-16(s0)
 80000e2:	ff240513          	addi	a0,s0,-14
 80000e6:	00000097          	auipc	ra,0x0
 80000ea:	1d6080e7          	jalr	470(ra) # 80002bc <hal.gpio.pin__anon_8050>
 80000ee:	fe042503          	lw	a0,-32(s0)
 80000f2:	ff344583          	lbu	a1,-13(s0)
 80000f6:	05a2                	slli	a1,a1,0x8
 80000f8:	ff244603          	lbu	a2,-14(s0)
 80000fc:	8dd1                	or	a1,a1,a2
 80000fe:	feb41a23          	sh	a1,-12(s0)
 8000102:	ff040593          	addi	a1,s0,-16
 8000106:	4605                	li	a2,1
 8000108:	fec42423          	sw	a2,-24(s0)
 800010c:	00000097          	auipc	ra,0x0
 8000110:	1ce080e7          	jalr	462(ra) # 80002da <hal.gpio.Pin.configure>
 8000114:	fe042503          	lw	a0,-32(s0)
 8000118:	ff440593          	addi	a1,s0,-12
 800011c:	feb42223          	sw	a1,-28(s0)
 8000120:	4621                	li	a2,8
 8000122:	00000097          	auipc	ra,0x0
 8000126:	1b8080e7          	jalr	440(ra) # 80002da <hal.gpio.Pin.configure>
 800012a:	fe042503          	lw	a0,-32(s0)
 800012e:	fe442583          	lw	a1,-28(s0)
 8000132:	fe842603          	lw	a2,-24(s0)
 8000136:	00000097          	auipc	ra,0x0
 800013a:	250080e7          	jalr	592(ra) # 8000386 <hal.gpio.Pin.write>
 800013e:	a009                	j	8000140 <main.main+0xaa>
 8000140:	fe042503          	lw	a0,-32(s0)
 8000144:	ff041583          	lh	a1,-16(s0)
 8000148:	feb41b23          	sh	a1,-10(s0)
 800014c:	ff440593          	addi	a1,s0,-12
 8000150:	00000097          	auipc	ra,0x0
 8000154:	2be080e7          	jalr	702(ra) # 800040e <hal.gpio.Pin.read>
 8000158:	85aa                	mv	a1,a0
 800015a:	fe042503          	lw	a0,-32(s0)
 800015e:	0015c613          	xori	a2,a1,1
 8000162:	ff640593          	addi	a1,s0,-10
 8000166:	00000097          	auipc	ra,0x0
 800016a:	220080e7          	jalr	544(ra) # 8000386 <hal.gpio.Pin.write>
 800016e:	bfc9                	j	8000140 <main.main+0xaa>

08000170 <system.system.init>:
 8000170:	fd410113          	addi	sp,sp,-44
 8000174:	d406                	sw	ra,40(sp)
 8000176:	d222                	sw	s0,36(sp)
 8000178:	1060                	addi	s0,sp,44
 800017a:	fca42a23          	sw	a0,-44(s0)
 800017e:	418c                	lw	a1,0(a1)
 8000180:	20000637          	lui	a2,0x20000
 8000184:	00b62023          	sw	a1,0(a2) # 20000000 <system.system.core_clock_hz>
 8000188:	00000097          	auipc	ra,0x0
 800018c:	2cc080e7          	jalr	716(ra) # 8000454 <periph.registers.rcc>
 8000190:	85aa                	mv	a1,a0
 8000192:	fd442503          	lw	a0,-44(s0)
 8000196:	862e                	mv	a2,a1
 8000198:	fcc42c23          	sw	a2,-40(s0)
 800019c:	feb42023          	sw	a1,-32(s0)
 80001a0:	feb42223          	sw	a1,-28(s0)
 80001a4:	00000097          	auipc	ra,0x0
 80001a8:	2c4080e7          	jalr	708(ra) # 8000468 <periph.registers.flash>
 80001ac:	85aa                	mv	a1,a0
 80001ae:	fcb42e23          	sw	a1,-36(s0)
 80001b2:	fea42423          	sw	a0,-24(s0)
 80001b6:	fea42623          	sw	a0,-20(s0)
 80001ba:	1ffff537          	lui	a0,0x1ffff
 80001be:	7d450593          	addi	a1,a0,2004 # 1ffff7d4 <_sidata+0x17fff260>
 80001c2:	feb42823          	sw	a1,-16(s0)
 80001c6:	7d454503          	lbu	a0,2004(a0)
 80001ca:	0ff00593          	li	a1,255
 80001ce:	02b51b63          	bne	a0,a1,8000204 <system.system.init+0x94>
 80001d2:	a899                	j	8000228 <system.system.init+0xb8>
 80001d4:	fdc42503          	lw	a0,-36(s0)
 80001d8:	fe842583          	lw	a1,-24(s0)
 80001dc:	4108                	lw	a0,0(a0)
 80001de:	9971                	andi	a0,a0,-4
 80001e0:	0505                	addi	a0,a0,1
 80001e2:	c188                	sw	a0,0(a1)
 80001e4:	fe042583          	lw	a1,-32(s0)
 80001e8:	41c8                	lw	a0,4(a1)
 80001ea:	7641                	lui	a2,0xffff0
 80001ec:	f0c60613          	addi	a2,a2,-244 # fffeff0c <_ebss+0xdffeff08>
 80001f0:	8d71                	and	a0,a0,a2
 80001f2:	c1c8                	sw	a0,4(a1)
 80001f4:	fe042583          	lw	a1,-32(s0)
 80001f8:	4188                	lw	a0,0(a1)
 80001fa:	01000637          	lui	a2,0x1000
 80001fe:	8d51                	or	a0,a0,a2
 8000200:	c188                	sw	a0,0(a1)
 8000202:	a82d                	j	800023c <system.system.init+0xcc>
 8000204:	fd842503          	lw	a0,-40(s0)
 8000208:	4108                	lw	a0,0(a0)
 800020a:	fea42a23          	sw	a0,-12(s0)
 800020e:	fe042583          	lw	a1,-32(s0)
 8000212:	f0757513          	andi	a0,a0,-249
 8000216:	1ffff637          	lui	a2,0x1ffff
 800021a:	7d464603          	lbu	a2,2004(a2) # 1ffff7d4 <_sidata+0x17fff260>
 800021e:	8a7d                	andi	a2,a2,31
 8000220:	060e                	slli	a2,a2,0x3
 8000222:	8d51                	or	a0,a0,a2
 8000224:	c188                	sw	a0,0(a1)
 8000226:	b77d                	j	80001d4 <system.system.init+0x64>
 8000228:	b775                	j	80001d4 <system.system.init+0x64>
 800022a:	fd842503          	lw	a0,-40(s0)
 800022e:	fe042583          	lw	a1,-32(s0)
 8000232:	4148                	lw	a0,4(a0)
 8000234:	9971                	andi	a0,a0,-4
 8000236:	0509                	addi	a0,a0,2
 8000238:	c1c8                	sw	a0,4(a1)
 800023a:	a005                	j	800025a <system.system.init+0xea>
 800023c:	fd842503          	lw	a0,-40(s0)
 8000240:	4108                	lw	a0,0(a0)
 8000242:	051a                	slli	a0,a0,0x6
 8000244:	00055463          	bgez	a0,800024c <system.system.init+0xdc>
 8000248:	a019                	j	800024e <system.system.init+0xde>
 800024a:	bfcd                	j	800023c <system.system.init+0xcc>
 800024c:	bffd                	j	800024a <system.system.init+0xda>
 800024e:	bff1                	j	800022a <system.system.init+0xba>
 8000250:	50a2                	lw	ra,40(sp)
 8000252:	5412                	lw	s0,36(sp)
 8000254:	02c10113          	addi	sp,sp,44
 8000258:	8082                	ret
 800025a:	fd842503          	lw	a0,-40(s0)
 800025e:	4148                	lw	a0,4(a0)
 8000260:	0572                	slli	a0,a0,0x1c
 8000262:	8179                	srli	a0,a0,0x1e
 8000264:	4589                	li	a1,2
 8000266:	00b51463          	bne	a0,a1,800026e <system.system.init+0xfe>
 800026a:	a019                	j	8000270 <system.system.init+0x100>
 800026c:	b7fd                	j	800025a <system.system.init+0xea>
 800026e:	bffd                	j	800026c <system.system.init+0xfc>
 8000270:	b7c5                	j	8000250 <system.system.init+0xe0>

08000272 <hal.gpio.enableAllClocks>:
 8000272:	1141                	addi	sp,sp,-16
 8000274:	c606                	sw	ra,12(sp)
 8000276:	c422                	sw	s0,8(sp)
 8000278:	0800                	addi	s0,sp,16
 800027a:	00000097          	auipc	ra,0x0
 800027e:	1da080e7          	jalr	474(ra) # 8000454 <periph.registers.rcc>
 8000282:	fea42823          	sw	a0,-16(s0)
 8000286:	fea42a23          	sw	a0,-12(s0)
 800028a:	ff042583          	lw	a1,-16(s0)
 800028e:	4d88                	lw	a0,24(a1)
 8000290:	03556513          	ori	a0,a0,53
 8000294:	cd88                	sw	a0,24(a1)
 8000296:	40b2                	lw	ra,12(sp)
 8000298:	4422                	lw	s0,8(sp)
 800029a:	0141                	addi	sp,sp,16
 800029c:	8082                	ret

0800029e <hal.gpio.pin__anon_8047>:
 800029e:	1161                	addi	sp,sp,-8
 80002a0:	c206                	sw	ra,4(sp)
 80002a2:	c022                	sw	s0,0(sp)
 80002a4:	0020                	addi	s0,sp,8
 80002a6:	85aa                	mv	a1,a0
 80002a8:	4509                	li	a0,2
 80002aa:	00a58023          	sb	a0,0(a1)
 80002ae:	4501                	li	a0,0
 80002b0:	00a580a3          	sb	a0,1(a1)
 80002b4:	4092                	lw	ra,4(sp)
 80002b6:	4402                	lw	s0,0(sp)
 80002b8:	0121                	addi	sp,sp,8
 80002ba:	8082                	ret

080002bc <hal.gpio.pin__anon_8050>:
 80002bc:	1161                	addi	sp,sp,-8
 80002be:	c206                	sw	ra,4(sp)
 80002c0:	c022                	sw	s0,0(sp)
 80002c2:	0020                	addi	s0,sp,8
 80002c4:	85aa                	mv	a1,a0
 80002c6:	4509                	li	a0,2
 80002c8:	00a58023          	sb	a0,0(a1)
 80002cc:	450d                	li	a0,3
 80002ce:	00a580a3          	sb	a0,1(a1)
 80002d2:	4092                	lw	ra,4(sp)
 80002d4:	4402                	lw	s0,0(sp)
 80002d6:	0121                	addi	sp,sp,8
 80002d8:	8082                	ret

080002da <hal.gpio.Pin.configure>:
 80002da:	fcc10113          	addi	sp,sp,-52
 80002de:	d806                	sw	ra,48(sp)
 80002e0:	d622                	sw	s0,44(sp)
 80002e2:	1840                	addi	s0,sp,52
 80002e4:	fcb42a23          	sw	a1,-44(s0)
 80002e8:	fca42623          	sw	a0,-52(s0)
 80002ec:	86b2                	mv	a3,a2
 80002ee:	fcd42823          	sw	a3,-48(s0)
 80002f2:	8a3d                	andi	a2,a2,15
 80002f4:	fec400a3          	sb	a2,-31(s0)
 80002f8:	0005c603          	lbu	a2,0(a1)
 80002fc:	0015c583          	lbu	a1,1(a1)
 8000300:	05a2                	slli	a1,a1,0x8
 8000302:	8dd1                	or	a1,a1,a2
 8000304:	feb41123          	sh	a1,-30(s0)
 8000308:	fe240593          	addi	a1,s0,-30
 800030c:	00000097          	auipc	ra,0x0
 8000310:	170080e7          	jalr	368(ra) # 800047c <hal.gpio.Pin.gpio>
 8000314:	fd442583          	lw	a1,-44(s0)
 8000318:	862a                	mv	a2,a0
 800031a:	fcc42c23          	sw	a2,-40(s0)
 800031e:	fea42223          	sw	a0,-28(s0)
 8000322:	fea42423          	sw	a0,-24(s0)
 8000326:	0015c503          	lbu	a0,1(a1)
 800032a:	893d                	andi	a0,a0,15
 800032c:	050a                	slli	a0,a0,0x2
 800032e:	fca42e23          	sw	a0,-36(s0)
 8000332:	8115                	srli	a0,a0,0x5
 8000334:	c901                	beqz	a0,8000344 <hal.gpio.Pin.configure+0x6a>
 8000336:	a009                	j	8000338 <hal.gpio.Pin.configure+0x5e>
 8000338:	fcc42503          	lw	a0,-52(s0)
 800033c:	00000097          	auipc	ra,0x0
 8000340:	cc4080e7          	jalr	-828(ra) # 8000000 <debug.FullPanic((function 'defaultPanic')).integerOverflow>
 8000344:	fd842503          	lw	a0,-40(s0)
 8000348:	fdc42603          	lw	a2,-36(s0)
 800034c:	fd042583          	lw	a1,-48(s0)
 8000350:	01f67693          	andi	a3,a2,31
 8000354:	fed407a3          	sb	a3,-17(s0)
 8000358:	46bd                	li	a3,15
 800035a:	00c696b3          	sll	a3,a3,a2
 800035e:	fed42823          	sw	a3,-16(s0)
 8000362:	89bd                	andi	a1,a1,15
 8000364:	00c59633          	sll	a2,a1,a2
 8000368:	fec42a23          	sw	a2,-12(s0)
 800036c:	fe442583          	lw	a1,-28(s0)
 8000370:	4108                	lw	a0,0(a0)
 8000372:	fff6c693          	not	a3,a3
 8000376:	8d75                	and	a0,a0,a3
 8000378:	8d51                	or	a0,a0,a2
 800037a:	c188                	sw	a0,0(a1)
 800037c:	50c2                	lw	ra,48(sp)
 800037e:	5432                	lw	s0,44(sp)
 8000380:	03410113          	addi	sp,sp,52
 8000384:	8082                	ret

08000386 <hal.gpio.Pin.write>:
 8000386:	fdc10113          	addi	sp,sp,-36
 800038a:	d006                	sw	ra,32(sp)
 800038c:	ce22                	sw	s0,28(sp)
 800038e:	1040                	addi	s0,sp,36
 8000390:	86b2                	mv	a3,a2
 8000392:	fcb42e23          	sw	a1,-36(s0)
 8000396:	0016f613          	andi	a2,a3,1
 800039a:	fec42023          	sw	a2,-32(s0)
 800039e:	fec404a3          	sb	a2,-23(s0)
 80003a2:	0005c603          	lbu	a2,0(a1)
 80003a6:	0015c583          	lbu	a1,1(a1)
 80003aa:	05a2                	slli	a1,a1,0x8
 80003ac:	8dd1                	or	a1,a1,a2
 80003ae:	feb41523          	sh	a1,-22(s0)
 80003b2:	fea40593          	addi	a1,s0,-22
 80003b6:	00000097          	auipc	ra,0x0
 80003ba:	0c6080e7          	jalr	198(ra) # 800047c <hal.gpio.Pin.gpio>
 80003be:	fdc42583          	lw	a1,-36(s0)
 80003c2:	862a                	mv	a2,a0
 80003c4:	fe042503          	lw	a0,-32(s0)
 80003c8:	fec42623          	sw	a2,-20(s0)
 80003cc:	fec42823          	sw	a2,-16(s0)
 80003d0:	0015c583          	lbu	a1,1(a1)
 80003d4:	00f5f613          	andi	a2,a1,15
 80003d8:	4585                	li	a1,1
 80003da:	00c595b3          	sll	a1,a1,a2
 80003de:	feb42223          	sw	a1,-28(s0)
 80003e2:	feb42a23          	sw	a1,-12(s0)
 80003e6:	e519                	bnez	a0,80003f4 <hal.gpio.Pin.write+0x6e>
 80003e8:	a821                	j	8000400 <hal.gpio.Pin.write+0x7a>
 80003ea:	5082                	lw	ra,32(sp)
 80003ec:	4472                	lw	s0,28(sp)
 80003ee:	02410113          	addi	sp,sp,36
 80003f2:	8082                	ret
 80003f4:	fe442503          	lw	a0,-28(s0)
 80003f8:	fec42583          	lw	a1,-20(s0)
 80003fc:	c988                	sw	a0,16(a1)
 80003fe:	b7f5                	j	80003ea <hal.gpio.Pin.write+0x64>
 8000400:	fe442503          	lw	a0,-28(s0)
 8000404:	fec42583          	lw	a1,-20(s0)
 8000408:	0542                	slli	a0,a0,0x10
 800040a:	c988                	sw	a0,16(a1)
 800040c:	bff9                	j	80003ea <hal.gpio.Pin.write+0x64>

0800040e <hal.gpio.Pin.read>:
 800040e:	1131                	addi	sp,sp,-20
 8000410:	c806                	sw	ra,16(sp)
 8000412:	c622                	sw	s0,12(sp)
 8000414:	0840                	addi	s0,sp,20
 8000416:	feb42623          	sw	a1,-20(s0)
 800041a:	0005c603          	lbu	a2,0(a1)
 800041e:	0015c583          	lbu	a1,1(a1)
 8000422:	05a2                	slli	a1,a1,0x8
 8000424:	8dd1                	or	a1,a1,a2
 8000426:	feb41923          	sh	a1,-14(s0)
 800042a:	ff240593          	addi	a1,s0,-14
 800042e:	00000097          	auipc	ra,0x0
 8000432:	04e080e7          	jalr	78(ra) # 800047c <hal.gpio.Pin.gpio>
 8000436:	fec42583          	lw	a1,-20(s0)
 800043a:	fea42a23          	sw	a0,-12(s0)
 800043e:	4508                	lw	a0,8(a0)
 8000440:	0015c583          	lbu	a1,1(a1)
 8000444:	89bd                	andi	a1,a1,15
 8000446:	00b55533          	srl	a0,a0,a1
 800044a:	8905                	andi	a0,a0,1
 800044c:	40c2                	lw	ra,16(sp)
 800044e:	4432                	lw	s0,12(sp)
 8000450:	0151                	addi	sp,sp,20
 8000452:	8082                	ret

08000454 <periph.registers.rcc>:
 8000454:	1161                	addi	sp,sp,-8
 8000456:	c206                	sw	ra,4(sp)
 8000458:	c022                	sw	s0,0(sp)
 800045a:	0020                	addi	s0,sp,8
 800045c:	40021537          	lui	a0,0x40021
 8000460:	4092                	lw	ra,4(sp)
 8000462:	4402                	lw	s0,0(sp)
 8000464:	0121                	addi	sp,sp,8
 8000466:	8082                	ret

08000468 <periph.registers.flash>:
 8000468:	1161                	addi	sp,sp,-8
 800046a:	c206                	sw	ra,4(sp)
 800046c:	c022                	sw	s0,0(sp)
 800046e:	0020                	addi	s0,sp,8
 8000470:	40022537          	lui	a0,0x40022
 8000474:	4092                	lw	ra,4(sp)
 8000476:	4402                	lw	s0,0(sp)
 8000478:	0121                	addi	sp,sp,8
 800047a:	8082                	ret

0800047c <hal.gpio.Pin.gpio>:
 800047c:	1131                	addi	sp,sp,-20
 800047e:	c806                	sw	ra,16(sp)
 8000480:	c622                	sw	s0,12(sp)
 8000482:	0840                	addi	s0,sp,20
 8000484:	fea42823          	sw	a0,-16(s0)
 8000488:	0005c503          	lbu	a0,0(a1)
 800048c:	fea42a23          	sw	a0,-12(s0)
 8000490:	890d                	andi	a0,a0,3
 8000492:	4589                	li	a1,2
 8000494:	04b50763          	beq	a0,a1,80004e2 <hal.gpio.Pin.gpio+0x66>
 8000498:	a009                	j	800049a <hal.gpio.Pin.gpio+0x1e>
 800049a:	ff442503          	lw	a0,-12(s0)
 800049e:	890d                	andi	a0,a0,3
 80004a0:	cd19                	beqz	a0,80004be <hal.gpio.Pin.gpio+0x42>
 80004a2:	a009                	j	80004a4 <hal.gpio.Pin.gpio+0x28>
 80004a4:	ff442503          	lw	a0,-12(s0)
 80004a8:	890d                	andi	a0,a0,3
 80004aa:	4585                	li	a1,1
 80004ac:	02b50263          	beq	a0,a1,80004d0 <hal.gpio.Pin.gpio+0x54>
 80004b0:	a091                	j	80004f4 <hal.gpio.Pin.gpio+0x78>
 80004b2:	fec42503          	lw	a0,-20(s0)
 80004b6:	40c2                	lw	ra,16(sp)
 80004b8:	4432                	lw	s0,12(sp)
 80004ba:	0151                	addi	sp,sp,20
 80004bc:	8082                	ret
 80004be:	ff042503          	lw	a0,-16(s0)
 80004c2:	00000097          	auipc	ra,0x0
 80004c6:	03e080e7          	jalr	62(ra) # 8000500 <periph.registers.gpioA>
 80004ca:	fea42623          	sw	a0,-20(s0)
 80004ce:	b7d5                	j	80004b2 <hal.gpio.Pin.gpio+0x36>
 80004d0:	ff042503          	lw	a0,-16(s0)
 80004d4:	00000097          	auipc	ra,0x0
 80004d8:	044080e7          	jalr	68(ra) # 8000518 <periph.registers.gpioC>
 80004dc:	fea42623          	sw	a0,-20(s0)
 80004e0:	bfc9                	j	80004b2 <hal.gpio.Pin.gpio+0x36>
 80004e2:	ff042503          	lw	a0,-16(s0)
 80004e6:	00000097          	auipc	ra,0x0
 80004ea:	046080e7          	jalr	70(ra) # 800052c <periph.registers.gpioD>
 80004ee:	fea42623          	sw	a0,-20(s0)
 80004f2:	b7c1                	j	80004b2 <hal.gpio.Pin.gpio+0x36>
 80004f4:	ff042503          	lw	a0,-16(s0)
 80004f8:	00000097          	auipc	ra,0x0
 80004fc:	b4a080e7          	jalr	-1206(ra) # 8000042 <debug.FullPanic((function 'defaultPanic')).corruptSwitch>

08000500 <periph.registers.gpioA>:
 8000500:	1161                	addi	sp,sp,-8
 8000502:	c206                	sw	ra,4(sp)
 8000504:	c022                	sw	s0,0(sp)
 8000506:	0020                	addi	s0,sp,8
 8000508:	40011537          	lui	a0,0x40011
 800050c:	80050513          	addi	a0,a0,-2048 # 40010800 <_ebss+0x200107fc>
 8000510:	4092                	lw	ra,4(sp)
 8000512:	4402                	lw	s0,0(sp)
 8000514:	0121                	addi	sp,sp,8
 8000516:	8082                	ret

08000518 <periph.registers.gpioC>:
 8000518:	1161                	addi	sp,sp,-8
 800051a:	c206                	sw	ra,4(sp)
 800051c:	c022                	sw	s0,0(sp)
 800051e:	0020                	addi	s0,sp,8
 8000520:	40011537          	lui	a0,0x40011
 8000524:	4092                	lw	ra,4(sp)
 8000526:	4402                	lw	s0,0(sp)
 8000528:	0121                	addi	sp,sp,8
 800052a:	8082                	ret

0800052c <periph.registers.gpioD>:
 800052c:	1161                	addi	sp,sp,-8
 800052e:	c206                	sw	ra,4(sp)
 8000530:	c022                	sw	s0,0(sp)
 8000532:	0020                	addi	s0,sp,8
 8000534:	40011537          	lui	a0,0x40011
 8000538:	40050513          	addi	a0,a0,1024 # 40011400 <_ebss+0x200113fc>
 800053c:	4092                	lw	ra,4(sp)
 800053e:	4402                	lw	s0,0(sp)
 8000540:	0121                	addi	sp,sp,8
 8000542:	8082                	ret

08000544 <__anon_2776>:
 8000544:	6e69 6574 6567 2072 766f 7265 6c66 776f     integer overflow
	...

08000555 <__anon_5636>:
 8000555:	7773 7469 6863 6f20 206e 6f63 7272 7075     switch on corrup
 8000565:	2074 6176 756c 0065 0000 0000 dc6c           t value.....l..
