
./.zig-cache/o/936f790677203992cc4136d0c42c3c68/oled:     file format elf32-littleriscv


Disassembly of section .text:

08000000 <.text>:
 8000000:	00000097          	auipc	ra,0x0
 8000004:	008080e7          	jalr	8(ra) # 0x8000008
 8000008:	fc410113          	addi	sp,sp,-60
 800000c:	dc06                	sw	ra,56(sp)
 800000e:	da22                	sw	s0,52(sp)
 8000010:	d826                	sw	s1,48(sp)
 8000012:	1ffff537          	lui	a0,0x1ffff
 8000016:	7d454583          	lbu	a1,2004(a0) # 0x1ffff7d4
 800001a:	f0158593          	addi	a1,a1,-255
 800001e:	cd81                	beqz	a1,0x8000036
 8000020:	400215b7          	lui	a1,0x40021
 8000024:	4190                	lw	a2,0(a1)
 8000026:	7d454503          	lbu	a0,2004(a0)
 800002a:	f0767613          	andi	a2,a2,-249
 800002e:	056e                	slli	a0,a0,0x1b
 8000030:	8161                	srli	a0,a0,0x18
 8000032:	8d51                	or	a0,a0,a2
 8000034:	c188                	sw	a0,0(a1)
 8000036:	40022537          	lui	a0,0x40022
 800003a:	410c                	lw	a1,0(a0)
 800003c:	40021437          	lui	s0,0x40021
 8000040:	99f1                	andi	a1,a1,-4
 8000042:	0585                	addi	a1,a1,1 # 0x40021001
 8000044:	c10c                	sw	a1,0(a0)
 8000046:	4048                	lw	a0,4(s0)
 8000048:	75c1                	lui	a1,0xffff0
 800004a:	f0c58593          	addi	a1,a1,-244 # 0xfffeff0c
 800004e:	8d6d                	and	a0,a0,a1
 8000050:	c048                	sw	a0,4(s0)
 8000052:	4008                	lw	a0,0(s0)
 8000054:	010005b7          	lui	a1,0x1000
 8000058:	8d4d                	or	a0,a0,a1
 800005a:	c008                	sw	a0,0(s0)
 800005c:	4008                	lw	a0,0(s0)
 800005e:	051a                	slli	a0,a0,0x6
 8000060:	fe055ee3          	bgez	a0,0x800005c
 8000064:	4048                	lw	a0,4(s0)
 8000066:	9971                	andi	a0,a0,-4
 8000068:	0509                	addi	a0,a0,2 # 0x40022002
 800006a:	c048                	sw	a0,4(s0)
 800006c:	4521                	li	a0,8
 800006e:	404c                	lw	a1,4(s0)
 8000070:	89b1                	andi	a1,a1,12
 8000072:	fea59ee3          	bne	a1,a0,0x800006e
 8000076:	e000f637          	lui	a2,0xe000f
 800007a:	65b1                	lui	a1,0xc
 800007c:	4515                	li	a0,5
 800007e:	4681                	li	a3,0
 8000080:	c214                	sw	a3,0(a2)
 8000082:	b7f58593          	addi	a1,a1,-1153 # 0xbb7f
 8000086:	ca0c                	sw	a1,16(a2)
 8000088:	c614                	sw	a3,8(a2)
 800008a:	c254                	sw	a3,4(a2)
 800008c:	c208                	sw	a0,0(a2)
 800008e:	4c08                	lw	a0,24(s0)
 8000090:	4589                	li	a1,2
 8000092:	4485                	li	s1,1
 8000094:	02056513          	ori	a0,a0,32
 8000098:	cc08                	sw	a0,24(s0)
 800009a:	10200513          	li	a0,258
 800009e:	02b101a3          	sb	a1,35(sp)
 80000a2:	02910123          	sb	s1,34(sp)
 80000a6:	02a11223          	sh	a0,36(sp)
 80000aa:	1048                	addi	a0,sp,36
 80000ac:	45a1                	li	a1,8
 80000ae:	00000097          	auipc	ra,0x0
 80000b2:	436080e7          	jalr	1078(ra) # 0x80004e4
 80000b6:	02415503          	lhu	a0,36(sp)
 80000ba:	00357593          	andi	a1,a0,3
 80000be:	c599                	beqz	a1,0x80000cc
 80000c0:	4609                	li	a2,2
 80000c2:	00c58a63          	beq	a1,a2,0x80000d6
 80000c6:	400115b7          	lui	a1,0x40011
 80000ca:	a811                	j	0x80000de
 80000cc:	400115b7          	lui	a1,0x40011
 80000d0:	80058593          	addi	a1,a1,-2048 # 0x40010800
 80000d4:	a029                	j	0x80000de
 80000d6:	400115b7          	lui	a1,0x40011
 80000da:	40058593          	addi	a1,a1,1024 # 0x40011400
 80000de:	0552                	slli	a0,a0,0x14
 80000e0:	8171                	srli	a0,a0,0x1c
 80000e2:	00a49533          	sll	a0,s1,a0
 80000e6:	c988                	sw	a0,16(a1)
 80000e8:	4c08                	lw	a0,24(s0)
 80000ea:	01056513          	ori	a0,a0,16
 80000ee:	cc08                	sw	a0,24(s0)
 80000f0:	4c48                	lw	a0,28(s0)
 80000f2:	002005b7          	lui	a1,0x200
 80000f6:	8d4d                	or	a0,a0,a1
 80000f8:	cc48                	sw	a0,28(s0)
 80000fa:	029103a3          	sb	s1,39(sp)
 80000fe:	02910323          	sb	s1,38(sp)
 8000102:	02910423          	sb	s1,40(sp)
 8000106:	029104a3          	sb	s1,41(sp)
 800010a:	1028                	addi	a0,sp,40
 800010c:	45b5                	li	a1,13
 800010e:	00000097          	auipc	ra,0x0
 8000112:	3d6080e7          	jalr	982(ra) # 0x80004e4
 8000116:	029105a3          	sb	s1,43(sp)
 800011a:	4509                	li	a0,2
 800011c:	02a10523          	sb	a0,42(sp)
 8000120:	02910623          	sb	s1,44(sp)
 8000124:	02a106a3          	sb	a0,45(sp)
 8000128:	1068                	addi	a0,sp,44
 800012a:	45b5                	li	a1,13
 800012c:	00000097          	auipc	ra,0x0
 8000130:	3b8080e7          	jalr	952(ra) # 0x80004e4
 8000134:	4808                	lw	a0,16(s0)
 8000136:	002005b7          	lui	a1,0x200
 800013a:	8d4d                	or	a0,a0,a1
 800013c:	c808                	sw	a0,16(s0)
 800013e:	4808                	lw	a0,16(s0)
 8000140:	ffe005b7          	lui	a1,0xffe00
 8000144:	15fd                	addi	a1,a1,-1 # 0xffdfffff
 8000146:	8d6d                	and	a0,a0,a1
 8000148:	400055b7          	lui	a1,0x40005
 800014c:	c808                	sw	a0,16(s0)
 800014e:	4045d503          	lhu	a0,1028(a1) # 0x40005404
 8000152:	6631                	lui	a2,0xc
 8000154:	0605                	addi	a2,a2,1 # 0xc001
 8000156:	fc057513          	andi	a0,a0,-64
 800015a:	0561                	addi	a0,a0,24
 800015c:	40a59223          	sh	a0,1028(a1)
 8000160:	40c59e23          	sh	a2,1052(a1)
 8000164:	40059503          	lh	a0,1024(a1)
 8000168:	00156513          	ori	a0,a0,1
 800016c:	40a59023          	sh	a0,1024(a1)
 8000170:	40059503          	lh	a0,1024(a1)
 8000174:	08000437          	lui	s0,0x8000
 8000178:	67240413          	addi	s0,s0,1650 # 0x8000672
 800017c:	40056513          	ori	a0,a0,1024
 8000180:	40a59023          	sh	a0,1024(a1)
 8000184:	44e5                	li	s1,25
 8000186:	c891                	beqz	s1,0x800019a
 8000188:	00044503          	lbu	a0,0(s0)
 800018c:	00000097          	auipc	ra,0x0
 8000190:	274080e7          	jalr	628(ra) # 0x8000400
 8000194:	0405                	addi	s0,s0,1
 8000196:	14fd                	addi	s1,s1,-1
 8000198:	f8e5                	bnez	s1,0x8000188
 800019a:	20000437          	lui	s0,0x20000
 800019e:	00040413          	mv	s0,s0
 80001a2:	40000613          	li	a2,1024
 80001a6:	8522                	mv	a0,s0
 80001a8:	4581                	li	a1,0
 80001aa:	00000097          	auipc	ra,0x0
 80001ae:	4b6080e7          	jalr	1206(ra) # 0x8000660
 80001b2:	00000097          	auipc	ra,0x0
 80001b6:	16c080e7          	jalr	364(ra) # 0x800031e
 80001ba:	8522                	mv	a0,s0
 80001bc:	4281                	li	t0,0
 80001be:	4701                	li	a4,0
 80001c0:	4685                	li	a3,1
 80001c2:	40011437          	lui	s0,0x40011
 80001c6:	0019a5b7          	lui	a1,0x19a
 80001ca:	0008d637          	lui	a2,0x8d
 80001ce:	28058593          	addi	a1,a1,640 # 0x19a280
 80001d2:	c02e                	sw	a1,0(sp)
 80001d4:	a0060593          	addi	a1,a2,-1536 # 0x8ca00
 80001d8:	c42e                	sw	a1,8(sp)
 80001da:	80040593          	addi	a1,s0,-2048 # 0x40010800
 80001de:	c22e                	sw	a1,4(sp)
 80001e0:	4785                	li	a5,1
 80001e2:	4409                	li	s0,2
 80001e4:	028107a3          	sb	s0,47(sp)
 80001e8:	02d10723          	sb	a3,46(sp)
 80001ec:	4592                	lw	a1,4(sp)
 80001ee:	4609                	li	a2,2
 80001f0:	c419                	beqz	s0,0x80001fe
 80001f2:	400115b7          	lui	a1,0x40011
 80001f6:	00c61463          	bne	a2,a2,0x80001fe
 80001fa:	40058593          	addi	a1,a1,1024 # 0x40011400
 80001fe:	ca3e                	sw	a5,20(sp)
 8000200:	ce26                	sw	s1,28(sp)
 8000202:	458c                	lw	a1,8(a1)
 8000204:	00d5d5b3          	srl	a1,a1,a3
 8000208:	8985                	andi	a1,a1,1
 800020a:	0015b613          	seqz	a2,a1
 800020e:	0012c593          	xori	a1,t0,1
 8000212:	c832                	sw	a2,16(sp)
 8000214:	8df1                	and	a1,a1,a2
 8000216:	8f2d                	xor	a4,a4,a1
 8000218:	cc3a                	sw	a4,24(sp)
 800021a:	00177413          	andi	s0,a4,1
 800021e:	40000613          	li	a2,1024
 8000222:	4581                	li	a1,0
 8000224:	00000097          	auipc	ra,0x0
 8000228:	43c080e7          	jalr	1084(ra) # 0x8000660
 800022c:	4625                	li	a2,9
 800022e:	4501                	li	a0,0
 8000230:	080005b7          	lui	a1,0x8000
 8000234:	69d58593          	addi	a1,a1,1693 # 0x800069d
 8000238:	00000097          	auipc	ra,0x0
 800023c:	1e8080e7          	jalr	488(ra) # 0x8000420
 8000240:	080005b7          	lui	a1,0x8000
 8000244:	69458593          	addi	a1,a1,1684 # 0x8000694
 8000248:	c622                	sw	s0,12(sp)
 800024a:	e409                	bnez	s0,0x8000254
 800024c:	080005b7          	lui	a1,0x8000
 8000250:	68b58593          	addi	a1,a1,1675 # 0x800068b
 8000254:	4529                	li	a0,10
 8000256:	4621                	li	a2,8
 8000258:	00000097          	auipc	ra,0x0
 800025c:	1c8080e7          	jalr	456(ra) # 0x8000420
 8000260:	4281                	li	t0,0
 8000262:	200004b7          	lui	s1,0x20000
 8000266:	00048493          	mv	s1,s1
 800026a:	4305                	li	t1,1
 800026c:	4772                	lw	a4,28(sp)
 800026e:	46a1                	li	a3,8
 8000270:	c6a5                	beqz	a3,0x80002d8
 8000272:	4501                	li	a0,0
 8000274:	080005b7          	lui	a1,0x8000
 8000278:	6a758593          	addi	a1,a1,1703 # 0x80006a7
 800027c:	9596                	add	a1,a1,t0
 800027e:	0005c603          	lbu	a2,0(a1)
 8000282:	005310b3          	sll	ra,t1,t0
 8000286:	fff0c393          	not	t2,ra
 800028a:	c6a1                	beqz	a3,0x80002d2
 800028c:	00a705b3          	add	a1,a4,a0
 8000290:	01059793          	slli	a5,a1,0x10
 8000294:	0207cc63          	bltz	a5,0x80002cc
 8000298:	83c1                	srli	a5,a5,0x10
 800029a:	07f00413          	li	s0,127
 800029e:	02f46a63          	bltu	s0,a5,0x80002d2
 80002a2:	2005e593          	ori	a1,a1,512
 80002a6:	05c2                	slli	a1,a1,0x10
 80002a8:	81c1                	srli	a1,a1,0x10
 80002aa:	00b487b3          	add	a5,s1,a1
 80002ae:	00754593          	xori	a1,a0,7
 80002b2:	0007c403          	lbu	s0,0(a5)
 80002b6:	00b655b3          	srl	a1,a2,a1
 80002ba:	8985                	andi	a1,a1,1
 80002bc:	c581                	beqz	a1,0x80002c4
 80002be:	00146433          	or	s0,s0,ra
 80002c2:	a019                	j	0x80002c8
 80002c4:	00747433          	and	s0,s0,t2
 80002c8:	00878023          	sb	s0,0(a5)
 80002cc:	0505                	addi	a0,a0,1
 80002ce:	fad51fe3          	bne	a0,a3,0x800028c
 80002d2:	0285                	addi	t0,t0,1
 80002d4:	f8d29fe3          	bne	t0,a3,0x8000272
 80002d8:	00000097          	auipc	ra,0x0
 80002dc:	046080e7          	jalr	70(ra) # 0x800031e
 80002e0:	4522                	lw	a0,8(sp)
 80002e2:	45b2                	lw	a1,12(sp)
 80002e4:	e191                	bnez	a1,0x80002e8
 80002e6:	4502                	lw	a0,0(sp)
 80002e8:	e000f6b7          	lui	a3,0xe000f
 80002ec:	468c                	lw	a1,8(a3)
 80002ee:	44f2                	lw	s1,28(sp)
 80002f0:	47d2                	lw	a5,20(sp)
 80002f2:	94be                	add	s1,s1,a5
 80002f4:	04c2                	slli	s1,s1,0x10
 80002f6:	84c1                	srai	s1,s1,0x10
 80002f8:	4762                	lw	a4,24(sp)
 80002fa:	4690                	lw	a2,8(a3)
 80002fc:	8e0d                	sub	a2,a2,a1
 80002fe:	fea66ee3          	bltu	a2,a0,0x80002fa
 8000302:	20000537          	lui	a0,0x20000
 8000306:	00050513          	mv	a0,a0
 800030a:	4685                	li	a3,1
 800030c:	00904363          	bgtz	s1,0x8000312
 8000310:	4785                	li	a5,1
 8000312:	0784a593          	slti	a1,s1,120
 8000316:	15fd                	addi	a1,a1,-1
 8000318:	8fcd                	or	a5,a5,a1
 800031a:	42c2                	lw	t0,16(sp)
 800031c:	b5d9                	j	0x80001e2
 800031e:	fc810113          	addi	sp,sp,-56
 8000322:	da06                	sw	ra,52(sp)
 8000324:	d822                	sw	s0,48(sp)
 8000326:	d626                	sw	s1,44(sp)
 8000328:	02100513          	li	a0,33
 800032c:	00000097          	auipc	ra,0x0
 8000330:	0d4080e7          	jalr	212(ra) # 0x8000400
 8000334:	01051593          	slli	a1,a0,0x10
 8000338:	edd5                	bnez	a1,0x80003f4
 800033a:	4501                	li	a0,0
 800033c:	00000097          	auipc	ra,0x0
 8000340:	0c4080e7          	jalr	196(ra) # 0x8000400
 8000344:	01051593          	slli	a1,a0,0x10
 8000348:	e5d5                	bnez	a1,0x80003f4
 800034a:	07f00513          	li	a0,127
 800034e:	00000097          	auipc	ra,0x0
 8000352:	0b2080e7          	jalr	178(ra) # 0x8000400
 8000356:	01051593          	slli	a1,a0,0x10
 800035a:	edc9                	bnez	a1,0x80003f4
 800035c:	02200513          	li	a0,34
 8000360:	00000097          	auipc	ra,0x0
 8000364:	0a0080e7          	jalr	160(ra) # 0x8000400
 8000368:	01051593          	slli	a1,a0,0x10
 800036c:	e5c1                	bnez	a1,0x80003f4
 800036e:	4501                	li	a0,0
 8000370:	00000097          	auipc	ra,0x0
 8000374:	090080e7          	jalr	144(ra) # 0x8000400
 8000378:	01051593          	slli	a1,a0,0x10
 800037c:	eda5                	bnez	a1,0x80003f4
 800037e:	451d                	li	a0,7
 8000380:	00000097          	auipc	ra,0x0
 8000384:	080080e7          	jalr	128(ra) # 0x8000400
 8000388:	01051593          	slli	a1,a0,0x10
 800038c:	e5a5                	bnez	a1,0x80003f4
 800038e:	02000413          	li	s0,32
 8000392:	4485                	li	s1,1
 8000394:	40000613          	li	a2,1024
 8000398:	8522                	mv	a0,s0
 800039a:	00c46463          	bltu	s0,a2,0x80003a2
 800039e:	40000513          	li	a0,1024
 80003a2:	3ff00613          	li	a2,1023
 80003a6:	04b66663          	bltu	a2,a1,0x80003f2
 80003aa:	00950633          	add	a2,a0,s1
 80003ae:	c032                	sw	a2,0(sp)
 80003b0:	02058513          	addi	a0,a1,32
 80003b4:	c22a                	sw	a0,4(sp)
 80003b6:	20000537          	lui	a0,0x20000
 80003ba:	00050513          	mv	a0,a0
 80003be:	95aa                	add	a1,a1,a0
 80003c0:	167d                	addi	a2,a2,-1
 80003c2:	04000513          	li	a0,64
 80003c6:	00a105a3          	sb	a0,11(sp)
 80003ca:	0068                	addi	a0,sp,12
 80003cc:	00000097          	auipc	ra,0x0
 80003d0:	27e080e7          	jalr	638(ra) # 0x800064a
 80003d4:	00b10513          	addi	a0,sp,11
 80003d8:	4582                	lw	a1,0(sp)
 80003da:	00000097          	auipc	ra,0x0
 80003de:	158080e7          	jalr	344(ra) # 0x8000532
 80003e2:	02040413          	addi	s0,s0,32
 80003e6:	01051613          	slli	a2,a0,0x10
 80003ea:	1481                	addi	s1,s1,-32 # 0x1fffffe0
 80003ec:	4592                	lw	a1,4(sp)
 80003ee:	d25d                	beqz	a2,0x8000394
 80003f0:	a011                	j	0x80003f4
 80003f2:	4501                	li	a0,0
 80003f4:	50d2                	lw	ra,52(sp)
 80003f6:	5442                	lw	s0,48(sp)
 80003f8:	54b2                	lw	s1,44(sp)
 80003fa:	03810113          	addi	sp,sp,56
 80003fe:	8082                	ret
 8000400:	1161                	addi	sp,sp,-8
 8000402:	c206                	sw	ra,4(sp)
 8000404:	00010123          	sb	zero,2(sp)
 8000408:	00a101a3          	sb	a0,3(sp)
 800040c:	00210513          	addi	a0,sp,2
 8000410:	4589                	li	a1,2
 8000412:	00000097          	auipc	ra,0x0
 8000416:	120080e7          	jalr	288(ra) # 0x8000532
 800041a:	4092                	lw	ra,4(sp)
 800041c:	0121                	addi	sp,sp,8
 800041e:	8082                	ret
 8000420:	fdc10113          	addi	sp,sp,-36
 8000424:	d006                	sw	ra,32(sp)
 8000426:	ce22                	sw	s0,28(sp)
 8000428:	cc26                	sw	s1,24(sp)
 800042a:	c232                	sw	a2,4(sp)
 800042c:	c02e                	sw	a1,0(sp)
 800042e:	c42a                	sw	a0,8(sp)
 8000430:	4581                	li	a1,0
 8000432:	4701                	li	a4,0
 8000434:	47a1                	li	a5,8
 8000436:	07f00413          	li	s0,127
 800043a:	200002b7          	lui	t0,0x20000
 800043e:	00028293          	mv	t0,t0
 8000442:	4512                	lw	a0,4(sp)
 8000444:	08a58a63          	beq	a1,a0,0x80004d8
 8000448:	4601                	li	a2,0
 800044a:	4502                	lw	a0,0(sp)
 800044c:	952e                	add	a0,a0,a1
 800044e:	00054503          	lbu	a0,0(a0) # 0x20000000
 8000452:	050e                	slli	a0,a0,0x3
 8000454:	c62a                	sw	a0,12(sp)
 8000456:	c82e                	sw	a1,16(sp)
 8000458:	cbb5                	beqz	a5,0x80004cc
 800045a:	4301                	li	t1,0
 800045c:	4532                	lw	a0,12(sp)
 800045e:	9532                	add	a0,a0,a2
 8000460:	46a2                	lw	a3,8(sp)
 8000462:	ca32                	sw	a2,20(sp)
 8000464:	96b2                	add	a3,a3,a2
 8000466:	080005b7          	lui	a1,0x8000
 800046a:	6af58593          	addi	a1,a1,1711 # 0x80006af
 800046e:	952e                	add	a0,a0,a1
 8000470:	00469613          	slli	a2,a3,0x4
 8000474:	00054583          	lbu	a1,0(a0)
 8000478:	18067613          	andi	a2,a2,384
 800047c:	8a9d                	andi	a3,a3,7
 800047e:	4505                	li	a0,1
 8000480:	00d513b3          	sll	t2,a0,a3
 8000484:	fff3c093          	not	ra,t2
 8000488:	cf8d                	beqz	a5,0x80004c2
 800048a:	006704b3          	add	s1,a4,t1
 800048e:	01049513          	slli	a0,s1,0x10
 8000492:	8141                	srli	a0,a0,0x10
 8000494:	02a46363          	bltu	s0,a0,0x80004ba
 8000498:	8cd1                	or	s1,s1,a2
 800049a:	04c2                	slli	s1,s1,0x10
 800049c:	80c1                	srli	s1,s1,0x10
 800049e:	9496                	add	s1,s1,t0
 80004a0:	0004c503          	lbu	a0,0(s1)
 80004a4:	01859693          	slli	a3,a1,0x18
 80004a8:	0006c563          	bltz	a3,0x80004b2
 80004ac:	00157533          	and	a0,a0,ra
 80004b0:	a019                	j	0x80004b6
 80004b2:	00756533          	or	a0,a0,t2
 80004b6:	00a48023          	sb	a0,0(s1)
 80004ba:	0586                	slli	a1,a1,0x1
 80004bc:	0305                	addi	t1,t1,1
 80004be:	fcf316e3          	bne	t1,a5,0x800048a
 80004c2:	4652                	lw	a2,20(sp)
 80004c4:	0605                	addi	a2,a2,1
 80004c6:	45c2                	lw	a1,16(sp)
 80004c8:	f8f619e3          	bne	a2,a5,0x800045a
 80004cc:	453d                	li	a0,15
 80004ce:	00a58563          	beq	a1,a0,0x80004d8
 80004d2:	0721                	addi	a4,a4,8
 80004d4:	0585                	addi	a1,a1,1
 80004d6:	b7b5                	j	0x8000442
 80004d8:	5082                	lw	ra,32(sp)
 80004da:	4472                	lw	s0,28(sp)
 80004dc:	44e2                	lw	s1,24(sp)
 80004de:	02410113          	addi	sp,sp,36
 80004e2:	8082                	ret
 80004e4:	00154603          	lbu	a2,1(a0)
 80004e8:	00054503          	lbu	a0,0(a0)
 80004ec:	0622                	slli	a2,a2,0x8
 80004ee:	8d51                	or	a0,a0,a2
 80004f0:	00357613          	andi	a2,a0,3
 80004f4:	ca09                	beqz	a2,0x8000506
 80004f6:	4689                	li	a3,2
 80004f8:	00d61c63          	bne	a2,a3,0x8000510
 80004fc:	40011637          	lui	a2,0x40011
 8000500:	40060613          	addi	a2,a2,1024 # 0x40011400
 8000504:	a801                	j	0x8000514
 8000506:	40011637          	lui	a2,0x40011
 800050a:	80060613          	addi	a2,a2,-2048 # 0x40010800
 800050e:	a019                	j	0x8000514
 8000510:	40011637          	lui	a2,0x40011
 8000514:	8119                	srli	a0,a0,0x6
 8000516:	46bd                	li	a3,15
 8000518:	89bd                	andi	a1,a1,15
 800051a:	4218                	lw	a4,0(a2)
 800051c:	8971                	andi	a0,a0,28
 800051e:	00a696b3          	sll	a3,a3,a0
 8000522:	00a59533          	sll	a0,a1,a0
 8000526:	fff6c593          	not	a1,a3
 800052a:	8df9                	and	a1,a1,a4
 800052c:	8d4d                	or	a0,a0,a1
 800052e:	c208                	sw	a0,0(a2)
 8000530:	8082                	ret
 8000532:	1161                	addi	sp,sp,-8
 8000534:	c222                	sw	s0,4(sp)
 8000536:	c026                	sw	s1,0(sp)
 8000538:	76a1                	lui	a3,0xfffe8
 800053a:	400054b7          	lui	s1,0x40005
 800053e:	95f68693          	addi	a3,a3,-1697 # 0xfffe795f
 8000542:	577d                	li	a4,-1
 8000544:	4184d403          	lhu	s0,1048(s1) # 0x40005418
 8000548:	87b6                	mv	a5,a3
 800054a:	8809                	andi	s0,s0,2
 800054c:	0685                	addi	a3,a3,1
 800054e:	c019                	beqz	s0,0x8000554
 8000550:	fee79ae3          	bne	a5,a4,0x8000544
 8000554:	cef1                	beqz	a3,0x8000630
 8000556:	40049683          	lh	a3,1024(s1)
 800055a:	7721                	lui	a4,0xfffe8
 800055c:	1006e693          	ori	a3,a3,256
 8000560:	40d49023          	sh	a3,1024(s1)
 8000564:	000306b7          	lui	a3,0x30
 8000568:	96070713          	addi	a4,a4,-1696 # 0xfffe7960
 800056c:	00168613          	addi	a2,a3,1 # 0x30001
 8000570:	4144d783          	lhu	a5,1044(s1)
 8000574:	41849403          	lh	s0,1048(s1)
 8000578:	0442                	slli	s0,s0,0x10
 800057a:	8fc1                	or	a5,a5,s0
 800057c:	00c7f6b3          	and	a3,a5,a2
 8000580:	87ba                	mv	a5,a4
 8000582:	00c68563          	beq	a3,a2,0x800058c
 8000586:	00178713          	addi	a4,a5,1
 800058a:	f3fd                	bnez	a5,0x8000570
 800058c:	c7c5                	beqz	a5,0x8000634
 800058e:	00070637          	lui	a2,0x70
 8000592:	07800693          	li	a3,120
 8000596:	40d49823          	sh	a3,1040(s1)
 800059a:	7721                	lui	a4,0xfffe8
 800059c:	08260693          	addi	a3,a2,130 # 0x70082
 80005a0:	96070713          	addi	a4,a4,-1696 # 0xfffe7960
 80005a4:	4144d603          	lhu	a2,1044(s1)
 80005a8:	41849783          	lh	a5,1048(s1)
 80005ac:	07c2                	slli	a5,a5,0x10
 80005ae:	8e5d                	or	a2,a2,a5
 80005b0:	8e75                	and	a2,a2,a3
 80005b2:	87ba                	mv	a5,a4
 80005b4:	00d60563          	beq	a2,a3,0x80005be
 80005b8:	00178713          	addi	a4,a5,1
 80005bc:	f7e5                	bnez	a5,0x80005a4
 80005be:	cfad                	beqz	a5,0x8000638
 80005c0:	4381                	li	t2,0
 80005c2:	7621                	lui	a2,0xfffe8
 80005c4:	95f60293          	addi	t0,a2,-1697 # 0xfffe795f
 80005c8:	57fd                	li	a5,-1
 80005ca:	c58d                	beqz	a1,0x80005f4
 80005cc:	00750633          	add	a2,a0,t2
 80005d0:	00064303          	lbu	t1,0(a2)
 80005d4:	8716                	mv	a4,t0
 80005d6:	4144d603          	lhu	a2,1044(s1)
 80005da:	843a                	mv	s0,a4
 80005dc:	08067613          	andi	a2,a2,128
 80005e0:	0705                	addi	a4,a4,1
 80005e2:	e219                	bnez	a2,0x80005e8
 80005e4:	fef419e3          	bne	s0,a5,0x80005d6
 80005e8:	cb31                	beqz	a4,0x800063c
 80005ea:	40649823          	sh	t1,1040(s1)
 80005ee:	0385                	addi	t2,t2,1
 80005f0:	fcb39ee3          	bne	t2,a1,0x80005cc
 80005f4:	7521                	lui	a0,0xfffe8
 80005f6:	0689                	addi	a3,a3,2
 80005f8:	00070637          	lui	a2,0x70
 80005fc:	96050593          	addi	a1,a0,-1696 # 0xfffe7960
 8000600:	08460513          	addi	a0,a2,132 # 0x70084
 8000604:	4144d603          	lhu	a2,1044(s1)
 8000608:	41849703          	lh	a4,1048(s1)
 800060c:	0742                	slli	a4,a4,0x10
 800060e:	8e59                	or	a2,a2,a4
 8000610:	8e75                	and	a2,a2,a3
 8000612:	872e                	mv	a4,a1
 8000614:	00a60563          	beq	a2,a0,0x800061e
 8000618:	00170593          	addi	a1,a4,1
 800061c:	f765                	bnez	a4,0x8000604
 800061e:	c30d                	beqz	a4,0x8000640
 8000620:	4501                	li	a0,0
 8000622:	40049583          	lh	a1,1024(s1)
 8000626:	2005e593          	ori	a1,a1,512
 800062a:	40b49023          	sh	a1,1024(s1)
 800062e:	a811                	j	0x8000642
 8000630:	4505                	li	a0,1
 8000632:	a801                	j	0x8000642
 8000634:	4509                	li	a0,2
 8000636:	a031                	j	0x8000642
 8000638:	450d                	li	a0,3
 800063a:	a021                	j	0x8000642
 800063c:	4511                	li	a0,4
 800063e:	a011                	j	0x8000642
 8000640:	4515                	li	a0,5
 8000642:	4412                	lw	s0,4(sp)
 8000644:	4482                	lw	s1,0(sp)
 8000646:	0121                	addi	sp,sp,8
 8000648:	8082                	ret
 800064a:	86aa                	mv	a3,a0
 800064c:	ca09                	beqz	a2,0x800065e
 800064e:	0005c703          	lbu	a4,0(a1)
 8000652:	167d                	addi	a2,a2,-1
 8000654:	00e68023          	sb	a4,0(a3)
 8000658:	0685                	addi	a3,a3,1
 800065a:	0585                	addi	a1,a1,1
 800065c:	fa6d                	bnez	a2,0x800064e
 800065e:	8082                	ret
 8000660:	ca01                	beqz	a2,0x8000670
 8000662:	962a                	add	a2,a2,a0
 8000664:	86aa                	mv	a3,a0
 8000666:	00b68023          	sb	a1,0(a3)
 800066a:	0685                	addi	a3,a3,1
 800066c:	fec69de3          	bne	a3,a2,0x8000666
 8000670:	8082                	ret
 8000672:	d5ae                	sw	a1,232(sp)
 8000674:	a880                	.insn	2, 0xa880
 8000676:	4000d33f 0020148d 	.insn	8, 0x0020148d4000d33f
 800067e:	c8a1                	beqz	s1,0x80006ce
 8000680:	12da                	slli	t0,t0,0x36
 8000682:	cf81                	beqz	a5,0x800069a
 8000684:	f1d9                	bnez	a1,0x800060a
 8000686:	a6a440db          	.insn	4, 0xa6a440db
 800068a:	445053af          	.insn	4, 0x445053af
 800068e:	533a                	lw	t1,172(sp)
 8000690:	4f4c                	lw	a1,28(a4)
 8000692:	50530057          	.insn	4, 0x50530057
 8000696:	3a44                	.insn	2, 0x3a44
 8000698:	4146                	lw	sp,80(sp)
 800069a:	4f005453          	.insn	4, 0x4f005453
 800069e:	454c                	lw	a1,12(a0)
 80006a0:	2044                	.insn	2, 0x2044
 80006a2:	4544                	lw	s1,12(a0)
 80006a4:	4f4d                	li	t5,19
 80006a6:	3c00                	.insn	2, 0x3c00
 80006a8:	a542                	.insn	2, 0xa542
 80006aa:	a581                	j	0x8000cea
 80006ac:	4299                	li	t0,6
 80006ae:	003c                	addi	a5,sp,8
 80006b0:	0000                	unimp
 80006b2:	0000                	unimp
 80006b4:	0000                	unimp
 80006b6:	7e00                	.insn	2, 0x7e00
 80006b8:	a581                	j	0x8000cf8
 80006ba:	bd81                	j	0x800050a
 80006bc:	8199                	srli	a1,a1,0x6
 80006be:	7e7e                	.insn	2, 0x7e7e
 80006c0:	c3ffdbff 6c7effe7 	.insn	20, 0x7cfe7c38100010387cfefefe6c7effe7c3ffdbff
 80006c8:	7cfefefe 10001038 
 80006d0:	7cfe7c38 
 80006d4:	1038                	addi	a4,sp,40
 80006d6:	3800                	.insn	2, 0x3800
 80006d8:	387c                	.insn	2, 0x387c
 80006da:	fefe                	.insn	2, 0xfefe
 80006dc:	10d6                	slli	ra,ra,0x35
 80006de:	1038                	addi	a4,sp,40
 80006e0:	7c38                	.insn	2, 0x7c38
 80006e2:	fefe                	.insn	2, 0xfefe
 80006e4:	107c                	addi	a5,sp,44
 80006e6:	0038                	addi	a4,sp,8
 80006e8:	1800                	addi	s0,sp,48
 80006ea:	3c3c                	.insn	2, 0x3c3c
 80006ec:	0018                	.insn	2, 0x0018
 80006ee:	ff00                	.insn	2, 0xff00
 80006f0:	e7ff c3c3 ffe7 00ff 	.insn	22, 0xc399bdbd99c3ff003c664242663c00ffffe7c3c3e7ff
 80006f8:	663c 4242 3c66 ff00 
 8000700:	99c3 bdbd c399 
 8000706:	0fff 0f07 cc7d cccc 	.insn	10, 0x3c78cccccc7d0f070fff
 800070e:	3c78 
 8000710:	6666                	.insn	2, 0x6666
 8000712:	3c66                	.insn	2, 0x3c66
 8000714:	7e18                	.insn	2, 0x7e18
 8000716:	3f18                	.insn	2, 0x3f18
 8000718:	30303f33          	.insn	4, 0x30303f33
 800071c:	f070                	.insn	2, 0xf070
 800071e:	7fe0                	.insn	2, 0x7fe0
 8000720:	63637f63          	bgeu	t1,s6,0x8000d5e
 8000724:	18c0e667          	.insn	4, 0x18c0e667
 8000728:	e7e73cdb          	.insn	4, 0xe7e73cdb
 800072c:	db3c                	sw	a5,112(a4)
 800072e:	8018                	.insn	2, 0x8018
 8000730:	f8e0                	.insn	2, 0xf8e0
 8000732:	f8fe                	.insn	2, 0xf8fe
 8000734:	80e0                	.insn	2, 0x80e0
 8000736:	0200                	addi	s0,sp,256
 8000738:	3e0e                	.insn	2, 0x3e0e
 800073a:	3efe                	.insn	2, 0x3efe
 800073c:	020e                	slli	tp,tp,0x3
 800073e:	1800                	addi	s0,sp,48
 8000740:	7e3c                	.insn	2, 0x7e3c
 8000742:	1818                	addi	a4,sp,48
 8000744:	3c7e                	.insn	2, 0x3c7e
 8000746:	6618                	.insn	2, 0x6618
 8000748:	6666                	.insn	2, 0x6666
 800074a:	6666                	.insn	2, 0x6666
 800074c:	6600                	.insn	2, 0x6600
 800074e:	7f00                	.insn	2, 0x7f00
 8000750:	1b7bdbdb          	.insn	4, 0x1b7bdbdb
 8000754:	3e001b1b          	.insn	4, 0x3e001b1b
 8000758:	3c61                	jal	0x80001f0
 800075a:	6666                	.insn	2, 0x6666
 800075c:	863c                	.insn	2, 0x863c
 800075e:	007c                	addi	a5,sp,12
 8000760:	0000                	unimp
 8000762:	7e00                	.insn	2, 0x7e00
 8000764:	7e7e                	.insn	2, 0x7e7e
 8000766:	1800                	addi	s0,sp,48
 8000768:	7e3c                	.insn	2, 0x7e3c
 800076a:	7e18                	.insn	2, 0x7e18
 800076c:	183c                	addi	a5,sp,56
 800076e:	7e3c18ff 18181818 	.insn	12, 0x18181800181818187e3c18ff
 8000776:	18181800 
 800077a:	7e18                	.insn	2, 0x7e18
 800077c:	183c                	addi	a5,sp,56
 800077e:	0000                	unimp
 8000780:	0c18                	addi	a4,sp,528
 8000782:	0cfe                	slli	s9,s9,0x1f
 8000784:	0018                	.insn	2, 0x0018
 8000786:	0000                	unimp
 8000788:	6030                	.insn	2, 0x6030
 800078a:	60fe                	.insn	2, 0x60fe
 800078c:	0030                	addi	a2,sp,8
 800078e:	0000                	unimp
 8000790:	c000                	sw	s0,0(s0)
 8000792:	c0c0                	sw	s0,4(s1)
 8000794:	00fe                	slli	ra,ra,0x1f
 8000796:	0000                	unimp
 8000798:	6624                	.insn	2, 0x6624
 800079a:	66ff 0024 0000 3c18 	.insn	22, 0x00183c7effff000000ffff7e3c180000002466ff
 80007a2:	ff7e 00ff 0000 ffff 
 80007aa:	3c7e 0018 0000 
 80007b0:	0000                	unimp
 80007b2:	0000                	unimp
 80007b4:	0000                	unimp
 80007b6:	1800                	addi	s0,sp,48
 80007b8:	3c3c                	.insn	2, 0x3c3c
 80007ba:	1818                	addi	a4,sp,48
 80007bc:	1800                	addi	s0,sp,48
 80007be:	6600                	.insn	2, 0x6600
 80007c0:	2466                	.insn	2, 0x2466
 80007c2:	0000                	unimp
 80007c4:	0000                	unimp
 80007c6:	6c00                	.insn	2, 0x6c00
 80007c8:	fe6c                	.insn	2, 0xfe6c
 80007ca:	fe6c                	.insn	2, 0xfe6c
 80007cc:	6c6c                	.insn	2, 0x6c6c
 80007ce:	1800                	addi	s0,sp,48
 80007d0:	603e                	.insn	2, 0x603e
 80007d2:	063c                	addi	a5,sp,776
 80007d4:	187c                	addi	a5,sp,60
 80007d6:	0000                	unimp
 80007d8:	ccc6                	sw	a7,88(sp)
 80007da:	3018                	.insn	2, 0x3018
 80007dc:	c666                	sw	s9,12(sp)
 80007de:	3800                	.insn	2, 0x3800
 80007e0:	386c                	.insn	2, 0x386c
 80007e2:	dc76                	sw	t4,56(sp)
 80007e4:	76cc                	.insn	2, 0x76cc
 80007e6:	1800                	addi	s0,sp,48
 80007e8:	3018                	.insn	2, 0x3018
 80007ea:	0000                	unimp
 80007ec:	0000                	unimp
 80007ee:	0c00                	addi	s0,sp,528
 80007f0:	3018                	.insn	2, 0x3018
 80007f2:	3030                	.insn	2, 0x3030
 80007f4:	0c18                	addi	a4,sp,528
 80007f6:	3000                	.insn	2, 0x3000
 80007f8:	0c18                	addi	a4,sp,528
 80007fa:	0c0c                	addi	a1,sp,528
 80007fc:	3018                	.insn	2, 0x3018
 80007fe:	0000                	unimp
 8000800:	3c66                	.insn	2, 0x3c66
 8000802:	00663cff 18180000 	.insn	16, 0x0018187e1818000000663cff
 800080a:	0018187e 00000000 
 8000812:	0000                	unimp
 8000814:	1818                	addi	a4,sp,48
 8000816:	0030                	addi	a2,sp,8
 8000818:	0000                	unimp
 800081a:	007e                	c.slli	zero,0x1f
	...
 8000824:	1818                	addi	a4,sp,48
 8000826:	0600                	addi	s0,sp,768
 8000828:	180c                	addi	a1,sp,48
 800082a:	6030                	.insn	2, 0x6030
 800082c:	80c0                	.insn	2, 0x80c0
 800082e:	3800                	.insn	2, 0x3800
 8000830:	c66c                	sw	a1,76(a2)
 8000832:	c6d6                	sw	s5,76(sp)
 8000834:	386c                	.insn	2, 0x386c
 8000836:	1800                	addi	s0,sp,48
 8000838:	1838                	addi	a4,sp,56
 800083a:	1818                	addi	a4,sp,48
 800083c:	7e18                	.insn	2, 0x7e18
 800083e:	7c00                	.insn	2, 0x7c00
 8000840:	06c6                	slli	a3,a3,0x11
 8000842:	301c                	.insn	2, 0x301c
 8000844:	fe66                	.insn	2, 0xfe66
 8000846:	7c00                	.insn	2, 0x7c00
 8000848:	06c6                	slli	a3,a3,0x11
 800084a:	063c                	addi	a5,sp,776
 800084c:	7cc6                	.insn	2, 0x7cc6
 800084e:	1c00                	addi	s0,sp,560
 8000850:	6c3c                	.insn	2, 0x6c3c
 8000852:	fecc                	.insn	2, 0xfecc
 8000854:	1e0c                	addi	a1,sp,816
 8000856:	fe00                	.insn	2, 0xfe00
 8000858:	c0c0                	sw	s0,4(s1)
 800085a:	06fc                	addi	a5,sp,844
 800085c:	7cc6                	.insn	2, 0x7cc6
 800085e:	3800                	.insn	2, 0x3800
 8000860:	c060                	sw	s0,68(s0)
 8000862:	c6fc                	sw	a5,76(a3)
 8000864:	7cc6                	.insn	2, 0x7cc6
 8000866:	fe00                	.insn	2, 0xfe00
 8000868:	0cc6                	slli	s9,s9,0x11
 800086a:	3018                	.insn	2, 0x3018
 800086c:	3030                	.insn	2, 0x3030
 800086e:	7c00                	.insn	2, 0x7c00
 8000870:	c6c6                	sw	a7,76(sp)
 8000872:	c67c                	sw	a5,76(a2)
 8000874:	7cc6                	.insn	2, 0x7cc6
 8000876:	7c00                	.insn	2, 0x7c00
 8000878:	c6c6                	sw	a7,76(sp)
 800087a:	067e                	slli	a2,a2,0x1f
 800087c:	780c                	.insn	2, 0x780c
 800087e:	0000                	unimp
 8000880:	1818                	addi	a4,sp,48
 8000882:	0000                	unimp
 8000884:	1818                	addi	a4,sp,48
 8000886:	0000                	unimp
 8000888:	1818                	addi	a4,sp,48
 800088a:	0000                	unimp
 800088c:	1818                	addi	a4,sp,48
 800088e:	0630                	addi	a2,sp,776
 8000890:	180c                	addi	a1,sp,48
 8000892:	1830                	addi	a2,sp,56
 8000894:	060c                	addi	a1,sp,768
 8000896:	0000                	unimp
 8000898:	7e00                	.insn	2, 0x7e00
 800089a:	0000                	unimp
 800089c:	007e                	c.slli	zero,0x1f
 800089e:	6000                	.insn	2, 0x6000
 80008a0:	1830                	addi	a2,sp,56
 80008a2:	180c                	addi	a1,sp,48
 80008a4:	6030                	.insn	2, 0x6030
 80008a6:	7c00                	.insn	2, 0x7c00
 80008a8:	0cc6                	slli	s9,s9,0x11
 80008aa:	1818                	addi	a4,sp,48
 80008ac:	1800                	addi	s0,sp,48
 80008ae:	7c00                	.insn	2, 0x7c00
 80008b0:	dec6                	sw	a7,124(sp)
 80008b2:	dede                	sw	s7,124(sp)
 80008b4:	78c0                	.insn	2, 0x78c0
 80008b6:	3800                	.insn	2, 0x3800
 80008b8:	c66c                	sw	a1,76(a2)
 80008ba:	c6fe                	sw	t6,76(sp)
 80008bc:	c6c6                	sw	a7,76(sp)
 80008be:	fc00                	.insn	2, 0xfc00
 80008c0:	6666                	.insn	2, 0x6666
 80008c2:	667c                	.insn	2, 0x667c
 80008c4:	fc66                	.insn	2, 0xfc66
 80008c6:	3c00                	.insn	2, 0x3c00
 80008c8:	c066                	sw	s9,0(sp)
 80008ca:	c0c0                	sw	s0,4(s1)
 80008cc:	3c66                	.insn	2, 0x3c66
 80008ce:	f800                	.insn	2, 0xf800
 80008d0:	666c                	.insn	2, 0x666c
 80008d2:	6666                	.insn	2, 0x6666
 80008d4:	f86c                	.insn	2, 0xf86c
 80008d6:	fe00                	.insn	2, 0xfe00
 80008d8:	6862                	.insn	2, 0x6862
 80008da:	6878                	.insn	2, 0x6878
 80008dc:	fe62                	.insn	2, 0xfe62
 80008de:	fe00                	.insn	2, 0xfe00
 80008e0:	6862                	.insn	2, 0x6862
 80008e2:	6878                	.insn	2, 0x6878
 80008e4:	f060                	.insn	2, 0xf060
 80008e6:	3c00                	.insn	2, 0x3c00
 80008e8:	c066                	sw	s9,0(sp)
 80008ea:	cec0                	sw	s0,28(a3)
 80008ec:	3a66                	.insn	2, 0x3a66
 80008ee:	c600                	sw	s0,8(a2)
 80008f0:	c6c6                	sw	a7,76(sp)
 80008f2:	c6fe                	sw	t6,76(sp)
 80008f4:	c6c6                	sw	a7,76(sp)
 80008f6:	3c00                	.insn	2, 0x3c00
 80008f8:	1818                	addi	a4,sp,48
 80008fa:	1818                	addi	a4,sp,48
 80008fc:	3c18                	.insn	2, 0x3c18
 80008fe:	1e00                	addi	s0,sp,816
 8000900:	0c0c                	addi	a1,sp,528
 8000902:	cc0c                	sw	a1,24(s0)
 8000904:	78cc                	.insn	2, 0x78cc
 8000906:	e600                	.insn	2, 0xe600
 8000908:	6c66                	.insn	2, 0x6c66
 800090a:	6c78                	.insn	2, 0x6c78
 800090c:	e666                	.insn	2, 0xe666
 800090e:	f000                	.insn	2, 0xf000
 8000910:	6060                	.insn	2, 0x6060
 8000912:	6260                	.insn	2, 0x6260
 8000914:	fe66                	.insn	2, 0xfe66
 8000916:	c600                	sw	s0,8(a2)
 8000918:	feee                	.insn	2, 0xfeee
 800091a:	d6fe                	sw	t6,108(sp)
 800091c:	c6c6                	sw	a7,76(sp)
 800091e:	c600                	sw	s0,8(a2)
 8000920:	f6e6                	.insn	2, 0xf6e6
 8000922:	cede                	sw	s7,92(sp)
 8000924:	c6c6                	sw	a7,76(sp)
 8000926:	7c00                	.insn	2, 0x7c00
 8000928:	c6c6                	sw	a7,76(sp)
 800092a:	c6c6                	sw	a7,76(sp)
 800092c:	7cc6                	.insn	2, 0x7cc6
 800092e:	fc00                	.insn	2, 0xfc00
 8000930:	6666                	.insn	2, 0x6666
 8000932:	607c                	.insn	2, 0x607c
 8000934:	f060                	.insn	2, 0xf060
 8000936:	7c00                	.insn	2, 0x7c00
 8000938:	c6c6                	sw	a7,76(sp)
 800093a:	c6c6                	sw	a7,76(sp)
 800093c:	7cce                	.insn	2, 0x7cce
 800093e:	fc0e                	.insn	2, 0xfc0e
 8000940:	6666                	.insn	2, 0x6666
 8000942:	6c7c                	.insn	2, 0x6c7c
 8000944:	e666                	.insn	2, 0xe666
 8000946:	3c00                	.insn	2, 0x3c00
 8000948:	3066                	.insn	2, 0x3066
 800094a:	0c18                	addi	a4,sp,528
 800094c:	3c66                	.insn	2, 0x3c66
 800094e:	7e00                	.insn	2, 0x7e00
 8000950:	5a7e                	lw	s4,252(sp)
 8000952:	1818                	addi	a4,sp,48
 8000954:	3c18                	.insn	2, 0x3c18
 8000956:	c600                	sw	s0,8(a2)
 8000958:	c6c6                	sw	a7,76(sp)
 800095a:	c6c6                	sw	a7,76(sp)
 800095c:	7cc6                	.insn	2, 0x7cc6
 800095e:	c600                	sw	s0,8(a2)
 8000960:	c6c6                	sw	a7,76(sp)
 8000962:	c6c6                	sw	a7,76(sp)
 8000964:	386c                	.insn	2, 0x386c
 8000966:	c600                	sw	s0,8(a2)
 8000968:	c6c6                	sw	a7,76(sp)
 800096a:	d6d6                	sw	s5,108(sp)
 800096c:	6cfe                	.insn	2, 0x6cfe
 800096e:	c600                	sw	s0,8(a2)
 8000970:	6cc6                	.insn	2, 0x6cc6
 8000972:	6c38                	.insn	2, 0x6c38
 8000974:	c6c6                	sw	a7,76(sp)
 8000976:	6600                	.insn	2, 0x6600
 8000978:	6666                	.insn	2, 0x6666
 800097a:	183c                	addi	a5,sp,56
 800097c:	3c18                	.insn	2, 0x3c18
 800097e:	fe00                	.insn	2, 0xfe00
 8000980:	8cc6                	mv	s9,a7
 8000982:	3218                	.insn	2, 0x3218
 8000984:	fe66                	.insn	2, 0xfe66
 8000986:	3c00                	.insn	2, 0x3c00
 8000988:	3030                	.insn	2, 0x3030
 800098a:	3030                	.insn	2, 0x3030
 800098c:	3c30                	.insn	2, 0x3c30
 800098e:	c000                	sw	s0,0(s0)
 8000990:	3060                	.insn	2, 0x3060
 8000992:	0c18                	addi	a4,sp,528
 8000994:	0206                	slli	tp,tp,0x1
 8000996:	3c00                	.insn	2, 0x3c00
 8000998:	0c0c                	addi	a1,sp,528
 800099a:	0c0c                	addi	a1,sp,528
 800099c:	3c0c                	.insn	2, 0x3c0c
 800099e:	1000                	addi	s0,sp,32
 80009a0:	6c38                	.insn	2, 0x6c38
 80009a2:	00c6                	slli	ra,ra,0x11
	...
 80009ac:	0000                	unimp
 80009ae:	0c1830ff 00000000 	.insn	16, 0x76cc7c0c78000000000000000c1830ff
 80009b6:	78000000 76cc7c0c 
 80009be:	e000                	.insn	2, 0xe000
 80009c0:	7c60                	.insn	2, 0x7c60
 80009c2:	6666                	.insn	2, 0x6666
 80009c4:	dc66                	sw	s9,56(sp)
 80009c6:	0000                	unimp
 80009c8:	7c00                	.insn	2, 0x7c00
 80009ca:	c0c6                	sw	a7,64(sp)
 80009cc:	7cc6                	.insn	2, 0x7cc6
 80009ce:	1c00                	addi	s0,sp,560
 80009d0:	7c0c                	.insn	2, 0x7c0c
 80009d2:	cccc                	sw	a1,28(s1)
 80009d4:	76cc                	.insn	2, 0x76cc
 80009d6:	0000                	unimp
 80009d8:	7c00                	.insn	2, 0x7c00
 80009da:	fec6                	.insn	2, 0xfec6
 80009dc:	7cc0                	.insn	2, 0x7cc0
 80009de:	3c00                	.insn	2, 0x3c00
 80009e0:	6066                	.insn	2, 0x6066
 80009e2:	60f8                	.insn	2, 0x60f8
 80009e4:	f060                	.insn	2, 0xf060
 80009e6:	0000                	unimp
 80009e8:	7600                	.insn	2, 0x7600
 80009ea:	cccc                	sw	a1,28(s1)
 80009ec:	0c7c                	addi	a5,sp,540
 80009ee:	e0f8                	.insn	2, 0xe0f8
 80009f0:	6c60                	.insn	2, 0x6c60
 80009f2:	6676                	.insn	2, 0x6676
 80009f4:	e666                	.insn	2, 0xe666
 80009f6:	1800                	addi	s0,sp,48
 80009f8:	3800                	.insn	2, 0x3800
 80009fa:	1818                	addi	a4,sp,48
 80009fc:	3c18                	.insn	2, 0x3c18
 80009fe:	0600                	addi	s0,sp,768
 8000a00:	0600                	addi	s0,sp,768
 8000a02:	0606                	slli	a2,a2,0x1
 8000a04:	6666                	.insn	2, 0x6666
 8000a06:	e03c                	.insn	2, 0xe03c
 8000a08:	6660                	.insn	2, 0x6660
 8000a0a:	786c                	.insn	2, 0x786c
 8000a0c:	e66c                	.insn	2, 0xe66c
 8000a0e:	3800                	.insn	2, 0x3800
 8000a10:	1818                	addi	a4,sp,48
 8000a12:	1818                	addi	a4,sp,48
 8000a14:	3c18                	.insn	2, 0x3c18
 8000a16:	0000                	unimp
 8000a18:	ec00                	.insn	2, 0xec00
 8000a1a:	d6fe                	sw	t6,108(sp)
 8000a1c:	d6d6                	sw	s5,108(sp)
 8000a1e:	0000                	unimp
 8000a20:	dc00                	sw	s0,56(s0)
 8000a22:	6666                	.insn	2, 0x6666
 8000a24:	6666                	.insn	2, 0x6666
 8000a26:	0000                	unimp
 8000a28:	7c00                	.insn	2, 0x7c00
 8000a2a:	c6c6                	sw	a7,76(sp)
 8000a2c:	7cc6                	.insn	2, 0x7cc6
 8000a2e:	0000                	unimp
 8000a30:	dc00                	sw	s0,56(s0)
 8000a32:	6666                	.insn	2, 0x6666
 8000a34:	607c                	.insn	2, 0x607c
 8000a36:	00f0                	addi	a2,sp,76
 8000a38:	7600                	.insn	2, 0x7600
 8000a3a:	cccc                	sw	a1,28(s1)
 8000a3c:	0c7c                	addi	a5,sp,540
 8000a3e:	001e                	c.slli	zero,0x7
 8000a40:	dc00                	sw	s0,56(s0)
 8000a42:	6076                	.insn	2, 0x6076
 8000a44:	f060                	.insn	2, 0xf060
 8000a46:	0000                	unimp
 8000a48:	7e00                	.insn	2, 0x7e00
 8000a4a:	7cc0                	.insn	2, 0x7cc0
 8000a4c:	fc06                	.insn	2, 0xfc06
 8000a4e:	3000                	.insn	2, 0x3000
 8000a50:	fc30                	.insn	2, 0xfc30
 8000a52:	3030                	.insn	2, 0x3030
 8000a54:	1c36                	slli	s8,s8,0x2d
 8000a56:	0000                	unimp
 8000a58:	cc00                	sw	s0,24(s0)
 8000a5a:	cccc                	sw	a1,28(s1)
 8000a5c:	76cc                	.insn	2, 0x76cc
 8000a5e:	0000                	unimp
 8000a60:	c600                	sw	s0,8(a2)
 8000a62:	c6c6                	sw	a7,76(sp)
 8000a64:	386c                	.insn	2, 0x386c
 8000a66:	0000                	unimp
 8000a68:	c600                	sw	s0,8(a2)
 8000a6a:	d6d6                	sw	s5,108(sp)
 8000a6c:	6cfe                	.insn	2, 0x6cfe
 8000a6e:	0000                	unimp
 8000a70:	c600                	sw	s0,8(a2)
 8000a72:	386c                	.insn	2, 0x386c
 8000a74:	c66c                	sw	a1,76(a2)
 8000a76:	0000                	unimp
 8000a78:	c600                	sw	s0,8(a2)
 8000a7a:	c6c6                	sw	a7,76(sp)
 8000a7c:	067e                	slli	a2,a2,0x1f
 8000a7e:	00fc                	addi	a5,sp,76
 8000a80:	7e00                	.insn	2, 0x7e00
 8000a82:	184c                	addi	a1,sp,52
 8000a84:	7e32                	.insn	2, 0x7e32
 8000a86:	0e00                	addi	s0,sp,784
 8000a88:	1818                	addi	a4,sp,48
 8000a8a:	1870                	addi	a2,sp,60
 8000a8c:	0e18                	addi	a4,sp,784
 8000a8e:	1800                	addi	s0,sp,48
 8000a90:	1818                	addi	a4,sp,48
 8000a92:	1818                	addi	a4,sp,48
 8000a94:	1818                	addi	a4,sp,48
 8000a96:	7000                	.insn	2, 0x7000
 8000a98:	1818                	addi	a4,sp,48
 8000a9a:	180e                	slli	a6,a6,0x23
 8000a9c:	7018                	.insn	2, 0x7018
 8000a9e:	7600                	.insn	2, 0x7600
 8000aa0:	00dc                	addi	a5,sp,68
 8000aa2:	0000                	unimp
 8000aa4:	0000                	unimp
 8000aa6:	0000                	unimp
 8000aa8:	3810                	.insn	2, 0x3810
 8000aaa:	c66c                	sw	a1,76(a2)
 8000aac:	fec6                	.insn	2, 0xfec6
 8000aae:	7c00                	.insn	2, 0x7c00
 8000ab0:	c0c6                	sw	a7,64(sp)
 8000ab2:	c6c0                	sw	s0,12(a3)
 8000ab4:	0c7c                	addi	a5,sp,540
 8000ab6:	cc78                	sw	a4,92(s0)
 8000ab8:	cc00                	sw	s0,24(s0)
 8000aba:	cccc                	sw	a1,28(s1)
 8000abc:	76cc                	.insn	2, 0x76cc
 8000abe:	0c00                	addi	s0,sp,528
 8000ac0:	7c18                	.insn	2, 0x7c18
 8000ac2:	fec6                	.insn	2, 0xfec6
 8000ac4:	7cc0                	.insn	2, 0x7cc0
 8000ac6:	7c00                	.insn	2, 0x7c00
 8000ac8:	7882                	.insn	2, 0x7882
 8000aca:	7c0c                	.insn	2, 0x7c0c
 8000acc:	76cc                	.insn	2, 0x76cc
 8000ace:	c600                	sw	s0,8(a2)
 8000ad0:	7800                	.insn	2, 0x7800
 8000ad2:	7c0c                	.insn	2, 0x7c0c
 8000ad4:	76cc                	.insn	2, 0x76cc
 8000ad6:	3000                	.insn	2, 0x3000
 8000ad8:	7818                	.insn	2, 0x7818
 8000ada:	7c0c                	.insn	2, 0x7c0c
 8000adc:	76cc                	.insn	2, 0x76cc
 8000ade:	3000                	.insn	2, 0x3000
 8000ae0:	7830                	.insn	2, 0x7830
 8000ae2:	7c0c                	.insn	2, 0x7c0c
 8000ae4:	76cc                	.insn	2, 0x76cc
 8000ae6:	0000                	unimp
 8000ae8:	7e00                	.insn	2, 0x7e00
 8000aea:	c0c0                	sw	s0,4(s1)
 8000aec:	0c7e                	slli	s8,s8,0x1f
 8000aee:	7c38                	.insn	2, 0x7c38
 8000af0:	7c82                	.insn	2, 0x7c82
 8000af2:	fec6                	.insn	2, 0xfec6
 8000af4:	7cc0                	.insn	2, 0x7cc0
 8000af6:	c600                	sw	s0,8(a2)
 8000af8:	7c00                	.insn	2, 0x7c00
 8000afa:	fec6                	.insn	2, 0xfec6
 8000afc:	7cc0                	.insn	2, 0x7cc0
 8000afe:	3000                	.insn	2, 0x3000
 8000b00:	7c18                	.insn	2, 0x7c18
 8000b02:	fec6                	.insn	2, 0xfec6
 8000b04:	7cc0                	.insn	2, 0x7cc0
 8000b06:	6600                	.insn	2, 0x6600
 8000b08:	3800                	.insn	2, 0x3800
 8000b0a:	1818                	addi	a4,sp,48
 8000b0c:	3c18                	.insn	2, 0x3c18
 8000b0e:	7c00                	.insn	2, 0x7c00
 8000b10:	3882                	.insn	2, 0x3882
 8000b12:	1818                	addi	a4,sp,48
 8000b14:	3c18                	.insn	2, 0x3c18
 8000b16:	3000                	.insn	2, 0x3000
 8000b18:	0018                	.insn	2, 0x0018
 8000b1a:	1838                	addi	a4,sp,56
 8000b1c:	3c18                	.insn	2, 0x3c18
 8000b1e:	c600                	sw	s0,8(a2)
 8000b20:	6c38                	.insn	2, 0x6c38
 8000b22:	fec6                	.insn	2, 0xfec6
 8000b24:	c6c6                	sw	a7,76(sp)
 8000b26:	3800                	.insn	2, 0x3800
 8000b28:	7c6c                	.insn	2, 0x7c6c
 8000b2a:	fec6                	.insn	2, 0xfec6
 8000b2c:	c6c6                	sw	a7,76(sp)
 8000b2e:	1800                	addi	s0,sp,48
 8000b30:	fe30                	.insn	2, 0xfe30
 8000b32:	f8c0                	.insn	2, 0xf8c0
 8000b34:	fec0                	.insn	2, 0xfec0
 8000b36:	0000                	unimp
 8000b38:	7e00                	.insn	2, 0x7e00
 8000b3a:	7e18                	.insn	2, 0x7e18
 8000b3c:	7ed8                	.insn	2, 0x7ed8
 8000b3e:	3e00                	.insn	2, 0x3e00
 8000b40:	cc6c                	sw	a1,92(s0)
 8000b42:	ccfe                	sw	t6,88(sp)
 8000b44:	cecc                	sw	a1,28(a3)
 8000b46:	7c00                	.insn	2, 0x7c00
 8000b48:	7c82                	.insn	2, 0x7c82
 8000b4a:	c6c6                	sw	a7,76(sp)
 8000b4c:	7cc6                	.insn	2, 0x7cc6
 8000b4e:	c600                	sw	s0,8(a2)
 8000b50:	7c00                	.insn	2, 0x7c00
 8000b52:	c6c6                	sw	a7,76(sp)
 8000b54:	7cc6                	.insn	2, 0x7cc6
 8000b56:	3000                	.insn	2, 0x3000
 8000b58:	7c18                	.insn	2, 0x7c18
 8000b5a:	c6c6                	sw	a7,76(sp)
 8000b5c:	7cc6                	.insn	2, 0x7cc6
 8000b5e:	7800                	.insn	2, 0x7800
 8000b60:	0084                	addi	s1,sp,64
 8000b62:	cccc                	sw	a1,28(s1)
 8000b64:	76cc                	.insn	2, 0x76cc
 8000b66:	6000                	.insn	2, 0x6000
 8000b68:	cc30                	sw	a2,88(s0)
 8000b6a:	cccc                	sw	a1,28(s1)
 8000b6c:	76cc                	.insn	2, 0x76cc
 8000b6e:	c600                	sw	s0,8(a2)
 8000b70:	c600                	sw	s0,8(a2)
 8000b72:	c6c6                	sw	a7,76(sp)
 8000b74:	067e                	slli	a2,a2,0x1f
 8000b76:	c6fc                	sw	a5,76(a3)
 8000b78:	6c38                	.insn	2, 0x6c38
 8000b7a:	c6c6                	sw	a7,76(sp)
 8000b7c:	386c                	.insn	2, 0x386c
 8000b7e:	c600                	sw	s0,8(a2)
 8000b80:	c600                	sw	s0,8(a2)
 8000b82:	c6c6                	sw	a7,76(sp)
 8000b84:	7cc6                	.insn	2, 0x7cc6
 8000b86:	1800                	addi	s0,sp,48
 8000b88:	7e18                	.insn	2, 0x7e18
 8000b8a:	c0c0                	sw	s0,4(s1)
 8000b8c:	187e                	slli	a6,a6,0x3f
 8000b8e:	3818                	.insn	2, 0x3818
 8000b90:	646c                	.insn	2, 0x646c
 8000b92:	60f0                	.insn	2, 0x60f0
 8000b94:	fc66                	.insn	2, 0xfc66
 8000b96:	6600                	.insn	2, 0x6600
 8000b98:	3c66                	.insn	2, 0x3c66
 8000b9a:	187e                	slli	a6,a6,0x3f
 8000b9c:	187e                	slli	a6,a6,0x3f
 8000b9e:	f818                	.insn	2, 0xf818
 8000ba0:	cccc                	sw	a1,28(s1)
 8000ba2:	c6fa                	sw	t5,76(sp)
 8000ba4:	0ec7c6cf          	.insn	4, 0x0ec7c6cf
 8000ba8:	183c181b          	.insn	4, 0x183c181b
 8000bac:	70d8                	.insn	2, 0x70d8
 8000bae:	1800                	addi	s0,sp,48
 8000bb0:	7830                	.insn	2, 0x7830
 8000bb2:	7c0c                	.insn	2, 0x7c0c
 8000bb4:	76cc                	.insn	2, 0x76cc
 8000bb6:	0c00                	addi	s0,sp,528
 8000bb8:	0018                	.insn	2, 0x0018
 8000bba:	1838                	addi	a4,sp,56
 8000bbc:	3c18                	.insn	2, 0x3c18
 8000bbe:	0c00                	addi	s0,sp,528
 8000bc0:	7c18                	.insn	2, 0x7c18
 8000bc2:	c6c6                	sw	a7,76(sp)
 8000bc4:	7cc6                	.insn	2, 0x7cc6
 8000bc6:	1800                	addi	s0,sp,48
 8000bc8:	cc30                	sw	a2,88(s0)
 8000bca:	cccc                	sw	a1,28(s1)
 8000bcc:	76cc                	.insn	2, 0x76cc
 8000bce:	7600                	.insn	2, 0x7600
 8000bd0:	00dc                	addi	a5,sp,68
 8000bd2:	66dc                	.insn	2, 0x66dc
 8000bd4:	6666                	.insn	2, 0x6666
 8000bd6:	7600                	.insn	2, 0x7600
 8000bd8:	00dc                	addi	a5,sp,68
 8000bda:	f6e6                	.insn	2, 0xf6e6
 8000bdc:	cede                	sw	s7,92(sp)
 8000bde:	3c00                	.insn	2, 0x3c00
 8000be0:	6c6c                	.insn	2, 0x6c6c
 8000be2:	003e                	c.slli	zero,0xf
 8000be4:	007e                	c.slli	zero,0x1f
 8000be6:	3800                	.insn	2, 0x3800
 8000be8:	6c6c                	.insn	2, 0x6c6c
 8000bea:	0038                	addi	a4,sp,8
 8000bec:	007c                	addi	a5,sp,12
 8000bee:	1800                	addi	s0,sp,48
 8000bf0:	1800                	addi	s0,sp,48
 8000bf2:	3018                	.insn	2, 0x3018
 8000bf4:	00003e63          	.insn	4, 0x3e63
 8000bf8:	0000                	unimp
 8000bfa:	c0fe                	sw	t6,64(sp)
 8000bfc:	00c0                	addi	s0,sp,68
 8000bfe:	0000                	unimp
 8000c00:	0000                	unimp
 8000c02:	06fe                	slli	a3,a3,0x1f
 8000c04:	0006                	c.slli	zero,0x1
 8000c06:	6300                	.insn	2, 0x6300
 8000c08:	6ce6                	.insn	2, 0x6ce6
 8000c0a:	337e                	.insn	2, 0x337e
 8000c0c:	cc66                	sw	s9,24(sp)
 8000c0e:	6ce6630f          	.insn	4, 0x6ce6630f
 8000c12:	367a                	.insn	2, 0x367a
 8000c14:	df6a                	sw	s10,188(sp)
 8000c16:	1806                	slli	a6,a6,0x21
 8000c18:	1800                	addi	s0,sp,48
 8000c1a:	3c18                	.insn	2, 0x3c18
 8000c1c:	183c                	addi	a5,sp,56
 8000c1e:	0000                	unimp
 8000c20:	66cc6633          	.insn	4, 0x66cc6633
 8000c24:	00000033          	add	zero,zero,zero
 8000c28:	66cc                	.insn	2, 0x66cc
 8000c2a:	00cc6633          	or	a2,s8,a2
 8000c2e:	2200                	.insn	2, 0x2200
 8000c30:	2288                	.insn	2, 0x2288
 8000c32:	2288                	.insn	2, 0x2288
 8000c34:	2288                	.insn	2, 0x2288
 8000c36:	5588                	lw	a0,40(a1)
 8000c38:	55aa                	lw	a1,168(sp)
 8000c3a:	55aa                	lw	a1,168(sp)
 8000c3c:	55aa                	lw	a1,168(sp)
 8000c3e:	77aa                	.insn	2, 0x77aa
 8000c40:	77dd                	lui	a5,0xffff7
 8000c42:	77dd                	lui	a5,0xffff7
 8000c44:	77dd                	lui	a5,0xffff7
 8000c46:	18dd                	addi	a7,a7,-9
 8000c48:	1818                	addi	a4,sp,48
 8000c4a:	1818                	addi	a4,sp,48
 8000c4c:	1818                	addi	a4,sp,48
 8000c4e:	1818                	addi	a4,sp,48
 8000c50:	1818                	addi	a4,sp,48
 8000c52:	f818                	.insn	2, 0xf818
 8000c54:	1818                	addi	a4,sp,48
 8000c56:	1818                	addi	a4,sp,48
 8000c58:	f818                	.insn	2, 0xf818
 8000c5a:	f818                	.insn	2, 0xf818
 8000c5c:	1818                	addi	a4,sp,48
 8000c5e:	3618                	.insn	2, 0x3618
 8000c60:	3636                	.insn	2, 0x3636
 8000c62:	f636                	.insn	2, 0xf636
 8000c64:	3636                	.insn	2, 0x3636
 8000c66:	0036                	c.slli	zero,0xd
 8000c68:	0000                	unimp
 8000c6a:	fe00                	.insn	2, 0xfe00
 8000c6c:	3636                	.insn	2, 0x3636
 8000c6e:	0036                	c.slli	zero,0xd
 8000c70:	f800                	.insn	2, 0xf800
 8000c72:	f818                	.insn	2, 0xf818
 8000c74:	1818                	addi	a4,sp,48
 8000c76:	3618                	.insn	2, 0x3618
 8000c78:	f636                	.insn	2, 0xf636
 8000c7a:	f606                	.insn	2, 0xf606
 8000c7c:	3636                	.insn	2, 0x3636
 8000c7e:	3636                	.insn	2, 0x3636
 8000c80:	3636                	.insn	2, 0x3636
 8000c82:	3636                	.insn	2, 0x3636
 8000c84:	3636                	.insn	2, 0x3636
 8000c86:	0036                	c.slli	zero,0xd
 8000c88:	fe00                	.insn	2, 0xfe00
 8000c8a:	f606                	.insn	2, 0xf606
 8000c8c:	3636                	.insn	2, 0x3636
 8000c8e:	3636                	.insn	2, 0x3636
 8000c90:	f636                	.insn	2, 0xf636
 8000c92:	fe06                	.insn	2, 0xfe06
 8000c94:	0000                	unimp
 8000c96:	3600                	.insn	2, 0x3600
 8000c98:	3636                	.insn	2, 0x3636
 8000c9a:	fe36                	.insn	2, 0xfe36
 8000c9c:	0000                	unimp
 8000c9e:	1800                	addi	s0,sp,48
 8000ca0:	f818                	.insn	2, 0xf818
 8000ca2:	f818                	.insn	2, 0xf818
 8000ca4:	0000                	unimp
 8000ca6:	0000                	unimp
 8000ca8:	0000                	unimp
 8000caa:	f800                	.insn	2, 0xf800
 8000cac:	1818                	addi	a4,sp,48
 8000cae:	1818                	addi	a4,sp,48
 8000cb0:	1818                	addi	a4,sp,48
 8000cb2:	1f18                	addi	a4,sp,944
 8000cb4:	0000                	unimp
 8000cb6:	1800                	addi	s0,sp,48
 8000cb8:	1818                	addi	a4,sp,48
 8000cba:	ff18                	.insn	2, 0xff18
 8000cbc:	0000                	unimp
 8000cbe:	0000                	unimp
 8000cc0:	0000                	unimp
 8000cc2:	ff00                	.insn	2, 0xff00
 8000cc4:	1818                	addi	a4,sp,48
 8000cc6:	1818                	addi	a4,sp,48
 8000cc8:	1818                	addi	a4,sp,48
 8000cca:	1f18                	addi	a4,sp,944
 8000ccc:	1818                	addi	a4,sp,48
 8000cce:	0018                	.insn	2, 0x0018
 8000cd0:	0000                	unimp
 8000cd2:	ff00                	.insn	2, 0xff00
 8000cd4:	0000                	unimp
 8000cd6:	1800                	addi	s0,sp,48
 8000cd8:	1818                	addi	a4,sp,48
 8000cda:	ff18                	.insn	2, 0xff18
 8000cdc:	1818                	addi	a4,sp,48
 8000cde:	1818                	addi	a4,sp,48
 8000ce0:	1f18                	addi	a4,sp,944
 8000ce2:	1f18                	addi	a4,sp,944
 8000ce4:	1818                	addi	a4,sp,48
 8000ce6:	3618                	.insn	2, 0x3618
 8000ce8:	3636                	.insn	2, 0x3636
 8000cea:	3736                	.insn	2, 0x3736
 8000cec:	3636                	.insn	2, 0x3636
 8000cee:	3636                	.insn	2, 0x3636
 8000cf0:	3736                	.insn	2, 0x3736
 8000cf2:	3f30                	.insn	2, 0x3f30
 8000cf4:	0000                	unimp
 8000cf6:	0000                	unimp
 8000cf8:	3f00                	.insn	2, 0x3f00
 8000cfa:	3730                	.insn	2, 0x3730
 8000cfc:	3636                	.insn	2, 0x3636
 8000cfe:	3636                	.insn	2, 0x3636
 8000d00:	f736                	.insn	2, 0xf736
 8000d02:	ff00                	.insn	2, 0xff00
 8000d04:	0000                	unimp
 8000d06:	0000                	unimp
 8000d08:	ff00                	.insn	2, 0xff00
 8000d0a:	f700                	.insn	2, 0xf700
 8000d0c:	3636                	.insn	2, 0x3636
 8000d0e:	3636                	.insn	2, 0x3636
 8000d10:	3736                	.insn	2, 0x3736
 8000d12:	3730                	.insn	2, 0x3730
 8000d14:	3636                	.insn	2, 0x3636
 8000d16:	0036                	c.slli	zero,0xd
 8000d18:	ff00                	.insn	2, 0xff00
 8000d1a:	ff00                	.insn	2, 0xff00
 8000d1c:	0000                	unimp
 8000d1e:	3600                	.insn	2, 0x3600
 8000d20:	f736                	.insn	2, 0xf736
 8000d22:	f700                	.insn	2, 0xf700
 8000d24:	3636                	.insn	2, 0x3636
 8000d26:	1836                	slli	a6,a6,0x2d
 8000d28:	ff18                	.insn	2, 0xff18
 8000d2a:	ff00                	.insn	2, 0xff00
 8000d2c:	0000                	unimp
 8000d2e:	3600                	.insn	2, 0x3600
 8000d30:	3636                	.insn	2, 0x3636
 8000d32:	ff36                	.insn	2, 0xff36
 8000d34:	0000                	unimp
 8000d36:	0000                	unimp
 8000d38:	ff00                	.insn	2, 0xff00
 8000d3a:	ff00                	.insn	2, 0xff00
 8000d3c:	1818                	addi	a4,sp,48
 8000d3e:	0018                	.insn	2, 0x0018
 8000d40:	0000                	unimp
 8000d42:	ff00                	.insn	2, 0xff00
 8000d44:	3636                	.insn	2, 0x3636
 8000d46:	3636                	.insn	2, 0x3636
 8000d48:	3636                	.insn	2, 0x3636
 8000d4a:	3f36                	.insn	2, 0x3f36
 8000d4c:	0000                	unimp
 8000d4e:	1800                	addi	s0,sp,48
 8000d50:	1f18                	addi	a4,sp,944
 8000d52:	1f18                	addi	a4,sp,944
 8000d54:	0000                	unimp
 8000d56:	0000                	unimp
 8000d58:	1f00                	addi	s0,sp,944
 8000d5a:	1f18                	addi	a4,sp,944
 8000d5c:	1818                	addi	a4,sp,48
 8000d5e:	0018                	.insn	2, 0x0018
 8000d60:	0000                	unimp
 8000d62:	3f00                	.insn	2, 0x3f00
 8000d64:	3636                	.insn	2, 0x3636
 8000d66:	3636                	.insn	2, 0x3636
 8000d68:	3636                	.insn	2, 0x3636
 8000d6a:	ff36                	.insn	2, 0xff36
 8000d6c:	3636                	.insn	2, 0x3636
 8000d6e:	1836                	slli	a6,a6,0x2d
 8000d70:	ff18                	.insn	2, 0xff18
 8000d72:	ff18                	.insn	2, 0xff18
 8000d74:	1818                	addi	a4,sp,48
 8000d76:	1818                	addi	a4,sp,48
 8000d78:	1818                	addi	a4,sp,48
 8000d7a:	f818                	.insn	2, 0xf818
 8000d7c:	0000                	unimp
 8000d7e:	0000                	unimp
 8000d80:	0000                	unimp
 8000d82:	1f00                	addi	s0,sp,944
 8000d84:	1818                	addi	a4,sp,48
 8000d86:	ff18                	.insn	2, 0xff18
 8000d88:	ffff                	.insn	2, 0xffff
 8000d8a:	ffff                	.insn	2, 0xffff
 8000d8c:	ffff                	.insn	2, 0xffff
 8000d8e:	00ff 0000 ff00 ffff 	.insn	10, 0xf0ffffffff00000000ff
 8000d96:	f0ff 
 8000d98:	f0f0                	.insn	2, 0xf0f0
 8000d9a:	f0f0                	.insn	2, 0xf0f0
 8000d9c:	f0f0                	.insn	2, 0xf0f0
 8000d9e:	0ff0                	addi	a2,sp,988
 8000da0:	0f0f0f0f          	.insn	4, 0x0f0f0f0f
 8000da4:	ff0f0f0f          	.insn	4, 0xff0f0f0f
 8000da8:	ffff                	.insn	2, 0xffff
 8000daa:	00ff 0000 0000 7600 	.insn	10, 0xc8dc76000000000000ff
 8000db2:	c8dc 
 8000db4:	76dc                	.insn	2, 0x76dc
 8000db6:	7800                	.insn	2, 0x7800
 8000db8:	cccc                	sw	a1,28(s1)
 8000dba:	ccd8                	sw	a4,28(s1)
 8000dbc:	ccc6                	sw	a7,88(sp)
 8000dbe:	fe00                	.insn	2, 0xfe00
 8000dc0:	c0c6                	sw	a7,64(sp)
 8000dc2:	c0c0                	sw	s0,4(s1)
 8000dc4:	c0c0                	sw	s0,4(s1)
 8000dc6:	0000                	unimp
 8000dc8:	fe00                	.insn	2, 0xfe00
 8000dca:	6c6c                	.insn	2, 0x6c6c
 8000dcc:	6c6c                	.insn	2, 0x6c6c
 8000dce:	fe00                	.insn	2, 0xfe00
 8000dd0:	60c6                	.insn	2, 0x60c6
 8000dd2:	6030                	.insn	2, 0x6030
 8000dd4:	fec6                	.insn	2, 0xfec6
 8000dd6:	0000                	unimp
 8000dd8:	7e00                	.insn	2, 0x7e00
 8000dda:	d8d8                	sw	a4,52(s1)
 8000ddc:	70d8                	.insn	2, 0x70d8
 8000dde:	0000                	unimp
 8000de0:	6600                	.insn	2, 0x6600
 8000de2:	6666                	.insn	2, 0x6666
 8000de4:	7c66                	.insn	2, 0x7c66
 8000de6:	00c0                	addi	s0,sp,68
 8000de8:	dc76                	sw	t4,56(sp)
 8000dea:	1818                	addi	a4,sp,48
 8000dec:	1818                	addi	a4,sp,48
 8000dee:	7e00                	.insn	2, 0x7e00
 8000df0:	3c18                	.insn	2, 0x3c18
 8000df2:	6666                	.insn	2, 0x6666
 8000df4:	183c                	addi	a5,sp,56
 8000df6:	387e                	.insn	2, 0x387e
 8000df8:	c66c                	sw	a1,76(a2)
 8000dfa:	c6fe                	sw	t6,76(sp)
 8000dfc:	386c                	.insn	2, 0x386c
 8000dfe:	3800                	.insn	2, 0x3800
 8000e00:	c66c                	sw	a1,76(a2)
 8000e02:	6cc6                	.insn	2, 0x6cc6
 8000e04:	ee6c                	.insn	2, 0xee6c
 8000e06:	0e00                	addi	s0,sp,784
 8000e08:	0c18                	addi	a4,sp,528
 8000e0a:	663e                	.insn	2, 0x663e
 8000e0c:	3c66                	.insn	2, 0x3c66
 8000e0e:	0000                	unimp
 8000e10:	7e00                	.insn	2, 0x7e00
 8000e12:	007edbdb          	.insn	4, 0x007edbdb
 8000e16:	0600                	addi	s0,sp,768
 8000e18:	7e0c                	.insn	2, 0x7e0c
 8000e1a:	607edbdb          	.insn	4, 0x607edbdb
 8000e1e:	1ec0                	addi	s0,sp,884
 8000e20:	6030                	.insn	2, 0x6030
 8000e22:	607e                	.insn	2, 0x607e
 8000e24:	1e30                	addi	a2,sp,824
 8000e26:	0000                	unimp
 8000e28:	c67c                	sw	a5,76(a2)
 8000e2a:	c6c6                	sw	a7,76(sp)
 8000e2c:	c6c6                	sw	a7,76(sp)
 8000e2e:	0000                	unimp
 8000e30:	00fe                	slli	ra,ra,0x1f
 8000e32:	00fe                	slli	ra,ra,0x1f
 8000e34:	00fe                	slli	ra,ra,0x1f
 8000e36:	1800                	addi	s0,sp,48
 8000e38:	7e18                	.insn	2, 0x7e18
 8000e3a:	1818                	addi	a4,sp,48
 8000e3c:	7e00                	.insn	2, 0x7e00
 8000e3e:	3000                	.insn	2, 0x3000
 8000e40:	0c18                	addi	a4,sp,528
 8000e42:	3018                	.insn	2, 0x3018
 8000e44:	7e00                	.insn	2, 0x7e00
 8000e46:	0c00                	addi	s0,sp,528
 8000e48:	3018                	.insn	2, 0x3018
 8000e4a:	0c18                	addi	a4,sp,528
 8000e4c:	7e00                	.insn	2, 0x7e00
 8000e4e:	0e00                	addi	s0,sp,784
 8000e50:	18181b1b          	.insn	4, 0x18181b1b
 8000e54:	1818                	addi	a4,sp,48
 8000e56:	1818                	addi	a4,sp,48
 8000e58:	1818                	addi	a4,sp,48
 8000e5a:	1818                	addi	a4,sp,48
 8000e5c:	d8d8                	sw	a4,52(s1)
 8000e5e:	0070                	addi	a2,sp,12
 8000e60:	0018                	.insn	2, 0x0018
 8000e62:	007e                	c.slli	zero,0x1f
 8000e64:	0018                	.insn	2, 0x0018
 8000e66:	0000                	unimp
 8000e68:	dc76                	sw	t4,56(sp)
 8000e6a:	7600                	.insn	2, 0x7600
 8000e6c:	00dc                	addi	a5,sp,68
 8000e6e:	3800                	.insn	2, 0x3800
 8000e70:	6c6c                	.insn	2, 0x6c6c
 8000e72:	0038                	addi	a4,sp,8
 8000e74:	0000                	unimp
 8000e76:	0000                	unimp
 8000e78:	0000                	unimp
 8000e7a:	1818                	addi	a4,sp,48
 8000e7c:	0000                	unimp
 8000e7e:	0000                	unimp
 8000e80:	0000                	unimp
 8000e82:	0018                	.insn	2, 0x0018
 8000e84:	0000                	unimp
 8000e86:	0f00                	addi	s0,sp,912
 8000e88:	0c0c                	addi	a1,sp,528
 8000e8a:	ec0c                	.insn	2, 0xec0c
 8000e8c:	3c6c                	.insn	2, 0x3c6c
 8000e8e:	6c1c                	.insn	2, 0x6c1c
 8000e90:	3636                	.insn	2, 0x3636
 8000e92:	3636                	.insn	2, 0x3636
 8000e94:	0000                	unimp
 8000e96:	7800                	.insn	2, 0x7800
 8000e98:	180c                	addi	a1,sp,48
 8000e9a:	7c30                	.insn	2, 0x7c30
 8000e9c:	0000                	unimp
 8000e9e:	0000                	unimp
 8000ea0:	3c00                	.insn	2, 0x3c00
 8000ea2:	3c3c                	.insn	2, 0x3c3c
 8000ea4:	003c                	addi	a5,sp,8
	...
