
./.zig-cache/o/121c50b9f41b1d95edbc23cb9f942c38/timer_irq:     file format elf32-littleriscv


Disassembly of section .text:

08000000 <debug.FullPanic((function 'defaultPanic')).integerOverflow>:
 8000000:	1141                	addi	sp,sp,-16
 8000002:	c606                	sw	ra,12(sp)
 8000004:	c422                	sw	s0,8(sp)
 8000006:	0800                	addi	s0,sp,16
 8000008:	fe142823          	sw	ra,-16(s0)
 800000c:	4585                	li	a1,1
 800000e:	feb40a23          	sb	a1,-12(s0)
 8000012:	080015b7          	lui	a1,0x8001
 8000016:	86858593          	addi	a1,a1,-1944 # 8000868 <__anon_2776>
 800001a:	4641                	li	a2,16
 800001c:	ff040693          	addi	a3,s0,-16
 8000020:	00000097          	auipc	ra,0x0
 8000024:	008080e7          	jalr	8(ra) # 8000028 <debug.defaultPanic>

08000028 <debug.defaultPanic>:
 8000028:	1121                	addi	sp,sp,-24
 800002a:	ca06                	sw	ra,20(sp)
 800002c:	c822                	sw	s0,16(sp)
 800002e:	0820                	addi	s0,sp,24
 8000030:	fec42623          	sw	a2,-20(s0)
 8000034:	feb42423          	sw	a1,-24(s0)
 8000038:	fec42a23          	sw	a2,-12(s0)
 800003c:	feb42823          	sw	a1,-16(s0)
	...

08000042 <debug.FullPanic((function 'defaultPanic')).corruptSwitch>:
 8000042:	1141                	addi	sp,sp,-16
 8000044:	c606                	sw	ra,12(sp)
 8000046:	c422                	sw	s0,8(sp)
 8000048:	0800                	addi	s0,sp,16
 800004a:	fe142823          	sw	ra,-16(s0)
 800004e:	4585                	li	a1,1
 8000050:	feb40a23          	sb	a1,-12(s0)
 8000054:	080015b7          	lui	a1,0x8001
 8000058:	87958593          	addi	a1,a1,-1927 # 8000879 <__anon_5636>
 800005c:	465d                	li	a2,23
 800005e:	ff040693          	addi	a3,s0,-16
 8000062:	00000097          	auipc	ra,0x0
 8000066:	fc6080e7          	jalr	-58(ra) # 8000028 <debug.defaultPanic>

0800006a <debug.FullPanic((function 'defaultPanic')).divideByZero>:
 800006a:	1141                	addi	sp,sp,-16
 800006c:	c606                	sw	ra,12(sp)
 800006e:	c422                	sw	s0,8(sp)
 8000070:	0800                	addi	s0,sp,16
 8000072:	fe142823          	sw	ra,-16(s0)
 8000076:	4585                	li	a1,1
 8000078:	feb40a23          	sb	a1,-12(s0)
 800007c:	080015b7          	lui	a1,0x8001
 8000080:	89158593          	addi	a1,a1,-1903 # 8000891 <__anon_2330>
 8000084:	4641                	li	a2,16
 8000086:	ff040693          	addi	a3,s0,-16
 800008a:	00000097          	auipc	ra,0x0
 800008e:	f9e080e7          	jalr	-98(ra) # 8000028 <debug.defaultPanic>

08000092 <_start>:
 8000092:	f6c10113          	addi	sp,sp,-148
 8000096:	c906                	sw	ra,144(sp)
 8000098:	c722                	sw	s0,140(sp)
 800009a:	0940                	addi	s0,sp,148
 800009c:	02000513          	li	a0,32
 80000a0:	fea42a23          	sw	a0,-12(s0)
 80000a4:	f6c40513          	addi	a0,s0,-148
 80000a8:	fea42823          	sw	a0,-16(s0)
 80000ac:	4501                	li	a0,0
 80000ae:	fea42623          	sw	a0,-20(s0)
 80000b2:	fec40513          	addi	a0,s0,-20
 80000b6:	00000097          	auipc	ra,0x0
 80000ba:	008080e7          	jalr	8(ra) # 80000be <main.main>

080000be <main.main>:
 80000be:	fc810113          	addi	sp,sp,-56
 80000c2:	da06                	sw	ra,52(sp)
 80000c4:	d822                	sw	s0,48(sp)
 80000c6:	1820                	addi	s0,sp,56
 80000c8:	ff817113          	andi	sp,sp,-8
 80000cc:	cc2a                	sw	a0,24(sp)
 80000ce:	080015b7          	lui	a1,0x8001
 80000d2:	8a458593          	addi	a1,a1,-1884 # 80008a4 <__anon_2330+0x13>
 80000d6:	00000097          	auipc	ra,0x0
 80000da:	0d6080e7          	jalr	214(ra) # 80001ac <system.system.init>
 80000de:	4562                	lw	a0,24(sp)
 80000e0:	00000097          	auipc	ra,0x0
 80000e4:	1ce080e7          	jalr	462(ra) # 80002ae <hal.gpio.enableAllClocks>
 80000e8:	45e2                	lw	a1,24(sp)
 80000ea:	0868                	addi	a0,sp,28
 80000ec:	00000097          	auipc	ra,0x0
 80000f0:	1ee080e7          	jalr	494(ra) # 80002da <hal.gpio.pin__anon_8047>
 80000f4:	4562                	lw	a0,24(sp)
 80000f6:	01d14583          	lbu	a1,29(sp)
 80000fa:	05a2                	slli	a1,a1,0x8
 80000fc:	01c14603          	lbu	a2,28(sp)
 8000100:	8dd1                	or	a1,a1,a2
 8000102:	00b11f23          	sh	a1,30(sp)
 8000106:	01e10593          	addi	a1,sp,30
 800010a:	4605                	li	a2,1
 800010c:	00000097          	auipc	ra,0x0
 8000110:	1ec080e7          	jalr	492(ra) # 80002f8 <hal.gpio.Pin.configure>
 8000114:	4562                	lw	a0,24(sp)
 8000116:	3e800593          	li	a1,1000
 800011a:	00000097          	auipc	ra,0x0
 800011e:	28a080e7          	jalr	650(ra) # 80003a4 <hal.time.systick.init>
 8000122:	4501                	li	a0,0
 8000124:	d22a                	sw	a0,36(sp)
 8000126:	d02a                	sw	a0,32(sp)
 8000128:	a009                	j	800012a <main.main+0x6c>
 800012a:	4562                	lw	a0,24(sp)
 800012c:	00000097          	auipc	ra,0x0
 8000130:	35a080e7          	jalr	858(ra) # 8000486 <hal.time.systick.nowTicks>
 8000134:	862a                	mv	a2,a0
 8000136:	852e                	mv	a0,a1
 8000138:	c02a                	sw	a0,0(sp)
 800013a:	8532                	mv	a0,a2
 800013c:	c22a                	sw	a0,4(sp)
 800013e:	d62e                	sw	a1,44(sp)
 8000140:	d432                	sw	a2,40(sp)
 8000142:	5512                	lw	a0,36(sp)
 8000144:	5682                	lw	a3,32(sp)
 8000146:	00d63733          	sltu	a4,a2,a3
 800014a:	40a58533          	sub	a0,a1,a0
 800014e:	8d19                	sub	a0,a0,a4
 8000150:	c42a                	sw	a0,8(sp)
 8000152:	00a5b733          	sltu	a4,a1,a0
 8000156:	c63a                	sw	a4,12(sp)
 8000158:	40d606b3          	sub	a3,a2,a3
 800015c:	c836                	sw	a3,16(sp)
 800015e:	00d63633          	sltu	a2,a2,a3
 8000162:	ca32                	sw	a2,20(sp)
 8000164:	00b50463          	beq	a0,a1,800016c <main.main+0xae>
 8000168:	4532                	lw	a0,12(sp)
 800016a:	ca2a                	sw	a0,20(sp)
 800016c:	4552                	lw	a0,20(sp)
 800016e:	e501                	bnez	a0,8000176 <main.main+0xb8>
 8000170:	a801                	j	8000180 <main.main+0xc2>
 8000172:	bf65                	j	800012a <main.main+0x6c>
 8000174:	bffd                	j	8000172 <main.main+0xb4>
 8000176:	4562                	lw	a0,24(sp)
 8000178:	00000097          	auipc	ra,0x0
 800017c:	e88080e7          	jalr	-376(ra) # 8000000 <debug.FullPanic((function 'defaultPanic')).integerOverflow>
 8000180:	4522                	lw	a0,8(sp)
 8000182:	45c2                	lw	a1,16(sp)
 8000184:	1f45b593          	sltiu	a1,a1,500
 8000188:	00153513          	seqz	a0,a0
 800018c:	8d6d                	and	a0,a0,a1
 800018e:	ed11                	bnez	a0,80001aa <main.main+0xec>
 8000190:	a009                	j	8000192 <main.main+0xd4>
 8000192:	4562                	lw	a0,24(sp)
 8000194:	01e10593          	addi	a1,sp,30
 8000198:	00000097          	auipc	ra,0x0
 800019c:	368080e7          	jalr	872(ra) # 8000500 <hal.gpio.Pin.toggle>
 80001a0:	4582                	lw	a1,0(sp)
 80001a2:	4512                	lw	a0,4(sp)
 80001a4:	d22e                	sw	a1,36(sp)
 80001a6:	d02a                	sw	a0,32(sp)
 80001a8:	b7f1                	j	8000174 <main.main+0xb6>
 80001aa:	b7e9                	j	8000174 <main.main+0xb6>

080001ac <system.system.init>:
 80001ac:	fd410113          	addi	sp,sp,-44
 80001b0:	d406                	sw	ra,40(sp)
 80001b2:	d222                	sw	s0,36(sp)
 80001b4:	1060                	addi	s0,sp,44
 80001b6:	fca42a23          	sw	a0,-44(s0)
 80001ba:	418c                	lw	a1,0(a1)
 80001bc:	20000637          	lui	a2,0x20000
 80001c0:	00b62023          	sw	a1,0(a2) # 20000000 <system.system.core_clock_hz>
 80001c4:	00000097          	auipc	ra,0x0
 80001c8:	38a080e7          	jalr	906(ra) # 800054e <periph.registers.rcc>
 80001cc:	85aa                	mv	a1,a0
 80001ce:	fd442503          	lw	a0,-44(s0)
 80001d2:	862e                	mv	a2,a1
 80001d4:	fcc42c23          	sw	a2,-40(s0)
 80001d8:	feb42023          	sw	a1,-32(s0)
 80001dc:	feb42223          	sw	a1,-28(s0)
 80001e0:	00000097          	auipc	ra,0x0
 80001e4:	382080e7          	jalr	898(ra) # 8000562 <periph.registers.flash>
 80001e8:	85aa                	mv	a1,a0
 80001ea:	fcb42e23          	sw	a1,-36(s0)
 80001ee:	fea42423          	sw	a0,-24(s0)
 80001f2:	fea42623          	sw	a0,-20(s0)
 80001f6:	1ffff537          	lui	a0,0x1ffff
 80001fa:	7d450593          	addi	a1,a0,2004 # 1ffff7d4 <_sidata+0x17ffef2c>
 80001fe:	feb42823          	sw	a1,-16(s0)
 8000202:	7d454503          	lbu	a0,2004(a0)
 8000206:	0ff00593          	li	a1,255
 800020a:	02b51b63          	bne	a0,a1,8000240 <system.system.init+0x94>
 800020e:	a899                	j	8000264 <system.system.init+0xb8>
 8000210:	fdc42503          	lw	a0,-36(s0)
 8000214:	fe842583          	lw	a1,-24(s0)
 8000218:	4108                	lw	a0,0(a0)
 800021a:	9971                	andi	a0,a0,-4
 800021c:	0505                	addi	a0,a0,1
 800021e:	c188                	sw	a0,0(a1)
 8000220:	fe042583          	lw	a1,-32(s0)
 8000224:	41c8                	lw	a0,4(a1)
 8000226:	7641                	lui	a2,0xffff0
 8000228:	f0c60613          	addi	a2,a2,-244 # fffeff0c <_ebss+0xdffeff00>
 800022c:	8d71                	and	a0,a0,a2
 800022e:	c1c8                	sw	a0,4(a1)
 8000230:	fe042583          	lw	a1,-32(s0)
 8000234:	4188                	lw	a0,0(a1)
 8000236:	01000637          	lui	a2,0x1000
 800023a:	8d51                	or	a0,a0,a2
 800023c:	c188                	sw	a0,0(a1)
 800023e:	a82d                	j	8000278 <system.system.init+0xcc>
 8000240:	fd842503          	lw	a0,-40(s0)
 8000244:	4108                	lw	a0,0(a0)
 8000246:	fea42a23          	sw	a0,-12(s0)
 800024a:	fe042583          	lw	a1,-32(s0)
 800024e:	f0757513          	andi	a0,a0,-249
 8000252:	1ffff637          	lui	a2,0x1ffff
 8000256:	7d464603          	lbu	a2,2004(a2) # 1ffff7d4 <_sidata+0x17ffef2c>
 800025a:	8a7d                	andi	a2,a2,31
 800025c:	060e                	slli	a2,a2,0x3
 800025e:	8d51                	or	a0,a0,a2
 8000260:	c188                	sw	a0,0(a1)
 8000262:	b77d                	j	8000210 <system.system.init+0x64>
 8000264:	b775                	j	8000210 <system.system.init+0x64>
 8000266:	fd842503          	lw	a0,-40(s0)
 800026a:	fe042583          	lw	a1,-32(s0)
 800026e:	4148                	lw	a0,4(a0)
 8000270:	9971                	andi	a0,a0,-4
 8000272:	0509                	addi	a0,a0,2
 8000274:	c1c8                	sw	a0,4(a1)
 8000276:	a005                	j	8000296 <system.system.init+0xea>
 8000278:	fd842503          	lw	a0,-40(s0)
 800027c:	4108                	lw	a0,0(a0)
 800027e:	051a                	slli	a0,a0,0x6
 8000280:	00055463          	bgez	a0,8000288 <system.system.init+0xdc>
 8000284:	a019                	j	800028a <system.system.init+0xde>
 8000286:	bfcd                	j	8000278 <system.system.init+0xcc>
 8000288:	bffd                	j	8000286 <system.system.init+0xda>
 800028a:	bff1                	j	8000266 <system.system.init+0xba>
 800028c:	50a2                	lw	ra,40(sp)
 800028e:	5412                	lw	s0,36(sp)
 8000290:	02c10113          	addi	sp,sp,44
 8000294:	8082                	ret
 8000296:	fd842503          	lw	a0,-40(s0)
 800029a:	4148                	lw	a0,4(a0)
 800029c:	0572                	slli	a0,a0,0x1c
 800029e:	8179                	srli	a0,a0,0x1e
 80002a0:	4589                	li	a1,2
 80002a2:	00b51463          	bne	a0,a1,80002aa <system.system.init+0xfe>
 80002a6:	a019                	j	80002ac <system.system.init+0x100>
 80002a8:	b7fd                	j	8000296 <system.system.init+0xea>
 80002aa:	bffd                	j	80002a8 <system.system.init+0xfc>
 80002ac:	b7c5                	j	800028c <system.system.init+0xe0>

080002ae <hal.gpio.enableAllClocks>:
 80002ae:	1141                	addi	sp,sp,-16
 80002b0:	c606                	sw	ra,12(sp)
 80002b2:	c422                	sw	s0,8(sp)
 80002b4:	0800                	addi	s0,sp,16
 80002b6:	00000097          	auipc	ra,0x0
 80002ba:	298080e7          	jalr	664(ra) # 800054e <periph.registers.rcc>
 80002be:	fea42823          	sw	a0,-16(s0)
 80002c2:	fea42a23          	sw	a0,-12(s0)
 80002c6:	ff042583          	lw	a1,-16(s0)
 80002ca:	4d88                	lw	a0,24(a1)
 80002cc:	03556513          	ori	a0,a0,53
 80002d0:	cd88                	sw	a0,24(a1)
 80002d2:	40b2                	lw	ra,12(sp)
 80002d4:	4422                	lw	s0,8(sp)
 80002d6:	0141                	addi	sp,sp,16
 80002d8:	8082                	ret

080002da <hal.gpio.pin__anon_8047>:
 80002da:	1161                	addi	sp,sp,-8
 80002dc:	c206                	sw	ra,4(sp)
 80002de:	c022                	sw	s0,0(sp)
 80002e0:	0020                	addi	s0,sp,8
 80002e2:	85aa                	mv	a1,a0
 80002e4:	4509                	li	a0,2
 80002e6:	00a58023          	sb	a0,0(a1)
 80002ea:	4501                	li	a0,0
 80002ec:	00a580a3          	sb	a0,1(a1)
 80002f0:	4092                	lw	ra,4(sp)
 80002f2:	4402                	lw	s0,0(sp)
 80002f4:	0121                	addi	sp,sp,8
 80002f6:	8082                	ret

080002f8 <hal.gpio.Pin.configure>:
 80002f8:	fcc10113          	addi	sp,sp,-52
 80002fc:	d806                	sw	ra,48(sp)
 80002fe:	d622                	sw	s0,44(sp)
 8000300:	1840                	addi	s0,sp,52
 8000302:	fcb42a23          	sw	a1,-44(s0)
 8000306:	fca42623          	sw	a0,-52(s0)
 800030a:	86b2                	mv	a3,a2
 800030c:	fcd42823          	sw	a3,-48(s0)
 8000310:	8a3d                	andi	a2,a2,15
 8000312:	fec400a3          	sb	a2,-31(s0)
 8000316:	0005c603          	lbu	a2,0(a1)
 800031a:	0015c583          	lbu	a1,1(a1)
 800031e:	05a2                	slli	a1,a1,0x8
 8000320:	8dd1                	or	a1,a1,a2
 8000322:	feb41123          	sh	a1,-30(s0)
 8000326:	fe240593          	addi	a1,s0,-30
 800032a:	00000097          	auipc	ra,0x0
 800032e:	24c080e7          	jalr	588(ra) # 8000576 <hal.gpio.Pin.gpio>
 8000332:	fd442583          	lw	a1,-44(s0)
 8000336:	862a                	mv	a2,a0
 8000338:	fcc42c23          	sw	a2,-40(s0)
 800033c:	fea42223          	sw	a0,-28(s0)
 8000340:	fea42423          	sw	a0,-24(s0)
 8000344:	0015c503          	lbu	a0,1(a1)
 8000348:	893d                	andi	a0,a0,15
 800034a:	050a                	slli	a0,a0,0x2
 800034c:	fca42e23          	sw	a0,-36(s0)
 8000350:	8115                	srli	a0,a0,0x5
 8000352:	c901                	beqz	a0,8000362 <hal.gpio.Pin.configure+0x6a>
 8000354:	a009                	j	8000356 <hal.gpio.Pin.configure+0x5e>
 8000356:	fcc42503          	lw	a0,-52(s0)
 800035a:	00000097          	auipc	ra,0x0
 800035e:	ca6080e7          	jalr	-858(ra) # 8000000 <debug.FullPanic((function 'defaultPanic')).integerOverflow>
 8000362:	fd842503          	lw	a0,-40(s0)
 8000366:	fdc42603          	lw	a2,-36(s0)
 800036a:	fd042583          	lw	a1,-48(s0)
 800036e:	01f67693          	andi	a3,a2,31
 8000372:	fed407a3          	sb	a3,-17(s0)
 8000376:	46bd                	li	a3,15
 8000378:	00c696b3          	sll	a3,a3,a2
 800037c:	fed42823          	sw	a3,-16(s0)
 8000380:	89bd                	andi	a1,a1,15
 8000382:	00c59633          	sll	a2,a1,a2
 8000386:	fec42a23          	sw	a2,-12(s0)
 800038a:	fe442583          	lw	a1,-28(s0)
 800038e:	4108                	lw	a0,0(a0)
 8000390:	fff6c693          	not	a3,a3
 8000394:	8d75                	and	a0,a0,a3
 8000396:	8d51                	or	a0,a0,a2
 8000398:	c188                	sw	a0,0(a1)
 800039a:	50c2                	lw	ra,48(sp)
 800039c:	5432                	lw	s0,44(sp)
 800039e:	03410113          	addi	sp,sp,52
 80003a2:	8082                	ret

080003a4 <hal.time.systick.init>:
 80003a4:	fd810113          	addi	sp,sp,-40
 80003a8:	d206                	sw	ra,36(sp)
 80003aa:	d022                	sw	s0,32(sp)
 80003ac:	1020                	addi	s0,sp,40
 80003ae:	feb42223          	sw	a1,-28(s0)
 80003b2:	fea42023          	sw	a0,-32(s0)
 80003b6:	feb42623          	sw	a1,-20(s0)
 80003ba:	00000097          	auipc	ra,0x0
 80003be:	240080e7          	jalr	576(ra) # 80005fa <periph.registers.systick>
 80003c2:	fe442583          	lw	a1,-28(s0)
 80003c6:	fea42823          	sw	a0,-16(s0)
 80003ca:	fea42a23          	sw	a0,-12(s0)
 80003ce:	20000537          	lui	a0,0x20000
 80003d2:	00052503          	lw	a0,0(a0) # 20000000 <system.system.core_clock_hz>
 80003d6:	fea42423          	sw	a0,-24(s0)
 80003da:	e19d                	bnez	a1,8000400 <hal.time.systick.init+0x5c>
 80003dc:	a01d                	j	8000402 <hal.time.systick.init+0x5e>
 80003de:	fe442583          	lw	a1,-28(s0)
 80003e2:	fe842503          	lw	a0,-24(s0)
 80003e6:	00000097          	auipc	ra,0x0
 80003ea:	33a080e7          	jalr	826(ra) # 8000720 <__udivsi3>
 80003ee:	85aa                	mv	a1,a0
 80003f0:	20000537          	lui	a0,0x20000
 80003f4:	00b52223          	sw	a1,4(a0) # 20000004 <hal.time.systick_ticks_per_irq>
 80003f8:	00452503          	lw	a0,4(a0)
 80003fc:	cd1d                	beqz	a0,800043a <hal.time.systick.init+0x96>
 80003fe:	a0a1                	j	8000446 <hal.time.systick.init+0xa2>
 8000400:	bff9                	j	80003de <hal.time.systick.init+0x3a>
 8000402:	fe042503          	lw	a0,-32(s0)
 8000406:	00000097          	auipc	ra,0x0
 800040a:	c64080e7          	jalr	-924(ra) # 800006a <debug.FullPanic((function 'defaultPanic')).divideByZero>
 800040e:	ff042583          	lw	a1,-16(s0)
 8000412:	4501                	li	a0,0
 8000414:	c188                	sw	a0,0(a1)
 8000416:	ff042503          	lw	a0,-16(s0)
 800041a:	0541                	addi	a0,a0,16
 800041c:	fca42c23          	sw	a0,-40(s0)
 8000420:	20000537          	lui	a0,0x20000
 8000424:	00452503          	lw	a0,4(a0) # 20000004 <hal.time.systick_ticks_per_irq>
 8000428:	fff50593          	addi	a1,a0,-1
 800042c:	fcb42e23          	sw	a1,-36(s0)
 8000430:	00b53633          	sltu	a2,a0,a1
 8000434:	00b56a63          	bltu	a0,a1,8000448 <hal.time.systick.init+0xa4>
 8000438:	a831                	j	8000454 <hal.time.systick.init+0xb0>
 800043a:	200005b7          	lui	a1,0x20000
 800043e:	4505                	li	a0,1
 8000440:	00a5a223          	sw	a0,4(a1) # 20000004 <hal.time.systick_ticks_per_irq>
 8000444:	b7e9                	j	800040e <hal.time.systick.init+0x6a>
 8000446:	b7e1                	j	800040e <hal.time.systick.init+0x6a>
 8000448:	fe042503          	lw	a0,-32(s0)
 800044c:	00000097          	auipc	ra,0x0
 8000450:	bb4080e7          	jalr	-1100(ra) # 8000000 <debug.FullPanic((function 'defaultPanic')).integerOverflow>
 8000454:	fdc42503          	lw	a0,-36(s0)
 8000458:	fd842583          	lw	a1,-40(s0)
 800045c:	c188                	sw	a0,0(a1)
 800045e:	ff042583          	lw	a1,-16(s0)
 8000462:	4501                	li	a0,0
 8000464:	c588                	sw	a0,8(a1)
 8000466:	ff042583          	lw	a1,-16(s0)
 800046a:	c1c8                	sw	a0,4(a1)
 800046c:	200005b7          	lui	a1,0x20000
 8000470:	00a5a423          	sw	a0,8(a1) # 20000008 <hal.time.systick_ticks>
 8000474:	ff042583          	lw	a1,-16(s0)
 8000478:	4515                	li	a0,5
 800047a:	c188                	sw	a0,0(a1)
 800047c:	5092                	lw	ra,36(sp)
 800047e:	5402                	lw	s0,32(sp)
 8000480:	02810113          	addi	sp,sp,40
 8000484:	8082                	ret

08000486 <hal.time.systick.nowTicks>:
 8000486:	1111                	addi	sp,sp,-28
 8000488:	cc06                	sw	ra,24(sp)
 800048a:	ca22                	sw	s0,20(sp)
 800048c:	0860                	addi	s0,sp,28
 800048e:	fea42623          	sw	a0,-20(s0)
 8000492:	00000097          	auipc	ra,0x0
 8000496:	168080e7          	jalr	360(ra) # 80005fa <periph.registers.systick>
 800049a:	85aa                	mv	a1,a0
 800049c:	feb42823          	sw	a1,-16(s0)
 80004a0:	fea42a23          	sw	a0,-12(s0)
 80004a4:	20000537          	lui	a0,0x20000
 80004a8:	00452503          	lw	a0,4(a0) # 20000004 <hal.time.systick_ticks_per_irq>
 80004ac:	cd19                	beqz	a0,80004ca <hal.time.systick.nowTicks+0x44>
 80004ae:	a025                	j	80004d6 <hal.time.systick.nowTicks+0x50>
 80004b0:	ff042503          	lw	a0,-16(s0)
 80004b4:	4508                	lw	a0,8(a0)
 80004b6:	fea42223          	sw	a0,-28(s0)
 80004ba:	20000537          	lui	a0,0x20000
 80004be:	00452503          	lw	a0,4(a0) # 20000004 <hal.time.systick_ticks_per_irq>
 80004c2:	fea42423          	sw	a0,-24(s0)
 80004c6:	e515                	bnez	a0,80004f2 <hal.time.systick.nowTicks+0x6c>
 80004c8:	a035                	j	80004f4 <hal.time.systick.nowTicks+0x6e>
 80004ca:	4581                	li	a1,0
 80004cc:	852e                	mv	a0,a1
 80004ce:	40e2                	lw	ra,24(sp)
 80004d0:	4452                	lw	s0,20(sp)
 80004d2:	0171                	addi	sp,sp,28
 80004d4:	8082                	ret
 80004d6:	bfe9                	j	80004b0 <hal.time.systick.nowTicks+0x2a>
 80004d8:	fe842583          	lw	a1,-24(s0)
 80004dc:	fe442503          	lw	a0,-28(s0)
 80004e0:	00000097          	auipc	ra,0x0
 80004e4:	240080e7          	jalr	576(ra) # 8000720 <__udivsi3>
 80004e8:	4581                	li	a1,0
 80004ea:	40e2                	lw	ra,24(sp)
 80004ec:	4452                	lw	s0,20(sp)
 80004ee:	0171                	addi	sp,sp,28
 80004f0:	8082                	ret
 80004f2:	b7dd                	j	80004d8 <hal.time.systick.nowTicks+0x52>
 80004f4:	fec42503          	lw	a0,-20(s0)
 80004f8:	00000097          	auipc	ra,0x0
 80004fc:	b72080e7          	jalr	-1166(ra) # 800006a <debug.FullPanic((function 'defaultPanic')).divideByZero>

08000500 <hal.gpio.Pin.toggle>:
 8000500:	1141                	addi	sp,sp,-16
 8000502:	c606                	sw	ra,12(sp)
 8000504:	c422                	sw	s0,8(sp)
 8000506:	0800                	addi	s0,sp,16
 8000508:	fea42823          	sw	a0,-16(s0)
 800050c:	0005c603          	lbu	a2,0(a1)
 8000510:	0015c583          	lbu	a1,1(a1)
 8000514:	05a2                	slli	a1,a1,0x8
 8000516:	8dd1                	or	a1,a1,a2
 8000518:	feb41a23          	sh	a1,-12(s0)
 800051c:	ff441583          	lh	a1,-12(s0)
 8000520:	feb41b23          	sh	a1,-10(s0)
 8000524:	ff440593          	addi	a1,s0,-12
 8000528:	00000097          	auipc	ra,0x0
 800052c:	0e6080e7          	jalr	230(ra) # 800060e <hal.gpio.Pin.readOut>
 8000530:	85aa                	mv	a1,a0
 8000532:	ff042503          	lw	a0,-16(s0)
 8000536:	0015c613          	xori	a2,a1,1
 800053a:	ff640593          	addi	a1,s0,-10
 800053e:	00000097          	auipc	ra,0x0
 8000542:	116080e7          	jalr	278(ra) # 8000654 <hal.gpio.Pin.write>
 8000546:	40b2                	lw	ra,12(sp)
 8000548:	4422                	lw	s0,8(sp)
 800054a:	0141                	addi	sp,sp,16
 800054c:	8082                	ret

0800054e <periph.registers.rcc>:
 800054e:	1161                	addi	sp,sp,-8
 8000550:	c206                	sw	ra,4(sp)
 8000552:	c022                	sw	s0,0(sp)
 8000554:	0020                	addi	s0,sp,8
 8000556:	40021537          	lui	a0,0x40021
 800055a:	4092                	lw	ra,4(sp)
 800055c:	4402                	lw	s0,0(sp)
 800055e:	0121                	addi	sp,sp,8
 8000560:	8082                	ret

08000562 <periph.registers.flash>:
 8000562:	1161                	addi	sp,sp,-8
 8000564:	c206                	sw	ra,4(sp)
 8000566:	c022                	sw	s0,0(sp)
 8000568:	0020                	addi	s0,sp,8
 800056a:	40022537          	lui	a0,0x40022
 800056e:	4092                	lw	ra,4(sp)
 8000570:	4402                	lw	s0,0(sp)
 8000572:	0121                	addi	sp,sp,8
 8000574:	8082                	ret

08000576 <hal.gpio.Pin.gpio>:
 8000576:	1131                	addi	sp,sp,-20
 8000578:	c806                	sw	ra,16(sp)
 800057a:	c622                	sw	s0,12(sp)
 800057c:	0840                	addi	s0,sp,20
 800057e:	fea42823          	sw	a0,-16(s0)
 8000582:	0005c503          	lbu	a0,0(a1)
 8000586:	fea42a23          	sw	a0,-12(s0)
 800058a:	890d                	andi	a0,a0,3
 800058c:	4589                	li	a1,2
 800058e:	04b50763          	beq	a0,a1,80005dc <hal.gpio.Pin.gpio+0x66>
 8000592:	a009                	j	8000594 <hal.gpio.Pin.gpio+0x1e>
 8000594:	ff442503          	lw	a0,-12(s0)
 8000598:	890d                	andi	a0,a0,3
 800059a:	cd19                	beqz	a0,80005b8 <hal.gpio.Pin.gpio+0x42>
 800059c:	a009                	j	800059e <hal.gpio.Pin.gpio+0x28>
 800059e:	ff442503          	lw	a0,-12(s0)
 80005a2:	890d                	andi	a0,a0,3
 80005a4:	4585                	li	a1,1
 80005a6:	02b50263          	beq	a0,a1,80005ca <hal.gpio.Pin.gpio+0x54>
 80005aa:	a091                	j	80005ee <hal.gpio.Pin.gpio+0x78>
 80005ac:	fec42503          	lw	a0,-20(s0)
 80005b0:	40c2                	lw	ra,16(sp)
 80005b2:	4432                	lw	s0,12(sp)
 80005b4:	0151                	addi	sp,sp,20
 80005b6:	8082                	ret
 80005b8:	ff042503          	lw	a0,-16(s0)
 80005bc:	00000097          	auipc	ra,0x0
 80005c0:	120080e7          	jalr	288(ra) # 80006dc <periph.registers.gpioA>
 80005c4:	fea42623          	sw	a0,-20(s0)
 80005c8:	b7d5                	j	80005ac <hal.gpio.Pin.gpio+0x36>
 80005ca:	ff042503          	lw	a0,-16(s0)
 80005ce:	00000097          	auipc	ra,0x0
 80005d2:	126080e7          	jalr	294(ra) # 80006f4 <periph.registers.gpioC>
 80005d6:	fea42623          	sw	a0,-20(s0)
 80005da:	bfc9                	j	80005ac <hal.gpio.Pin.gpio+0x36>
 80005dc:	ff042503          	lw	a0,-16(s0)
 80005e0:	00000097          	auipc	ra,0x0
 80005e4:	128080e7          	jalr	296(ra) # 8000708 <periph.registers.gpioD>
 80005e8:	fea42623          	sw	a0,-20(s0)
 80005ec:	b7c1                	j	80005ac <hal.gpio.Pin.gpio+0x36>
 80005ee:	ff042503          	lw	a0,-16(s0)
 80005f2:	00000097          	auipc	ra,0x0
 80005f6:	a50080e7          	jalr	-1456(ra) # 8000042 <debug.FullPanic((function 'defaultPanic')).corruptSwitch>

080005fa <periph.registers.systick>:
 80005fa:	1161                	addi	sp,sp,-8
 80005fc:	c206                	sw	ra,4(sp)
 80005fe:	c022                	sw	s0,0(sp)
 8000600:	0020                	addi	s0,sp,8
 8000602:	e000f537          	lui	a0,0xe000f
 8000606:	4092                	lw	ra,4(sp)
 8000608:	4402                	lw	s0,0(sp)
 800060a:	0121                	addi	sp,sp,8
 800060c:	8082                	ret

0800060e <hal.gpio.Pin.readOut>:
 800060e:	1131                	addi	sp,sp,-20
 8000610:	c806                	sw	ra,16(sp)
 8000612:	c622                	sw	s0,12(sp)
 8000614:	0840                	addi	s0,sp,20
 8000616:	feb42623          	sw	a1,-20(s0)
 800061a:	0005c603          	lbu	a2,0(a1)
 800061e:	0015c583          	lbu	a1,1(a1)
 8000622:	05a2                	slli	a1,a1,0x8
 8000624:	8dd1                	or	a1,a1,a2
 8000626:	feb41923          	sh	a1,-14(s0)
 800062a:	ff240593          	addi	a1,s0,-14
 800062e:	00000097          	auipc	ra,0x0
 8000632:	f48080e7          	jalr	-184(ra) # 8000576 <hal.gpio.Pin.gpio>
 8000636:	fec42583          	lw	a1,-20(s0)
 800063a:	fea42a23          	sw	a0,-12(s0)
 800063e:	4548                	lw	a0,12(a0)
 8000640:	0015c583          	lbu	a1,1(a1)
 8000644:	89bd                	andi	a1,a1,15
 8000646:	00b55533          	srl	a0,a0,a1
 800064a:	8905                	andi	a0,a0,1
 800064c:	40c2                	lw	ra,16(sp)
 800064e:	4432                	lw	s0,12(sp)
 8000650:	0151                	addi	sp,sp,20
 8000652:	8082                	ret

08000654 <hal.gpio.Pin.write>:
 8000654:	fdc10113          	addi	sp,sp,-36
 8000658:	d006                	sw	ra,32(sp)
 800065a:	ce22                	sw	s0,28(sp)
 800065c:	1040                	addi	s0,sp,36
 800065e:	86b2                	mv	a3,a2
 8000660:	fcb42e23          	sw	a1,-36(s0)
 8000664:	0016f613          	andi	a2,a3,1
 8000668:	fec42023          	sw	a2,-32(s0)
 800066c:	fec404a3          	sb	a2,-23(s0)
 8000670:	0005c603          	lbu	a2,0(a1)
 8000674:	0015c583          	lbu	a1,1(a1)
 8000678:	05a2                	slli	a1,a1,0x8
 800067a:	8dd1                	or	a1,a1,a2
 800067c:	feb41523          	sh	a1,-22(s0)
 8000680:	fea40593          	addi	a1,s0,-22
 8000684:	00000097          	auipc	ra,0x0
 8000688:	ef2080e7          	jalr	-270(ra) # 8000576 <hal.gpio.Pin.gpio>
 800068c:	fdc42583          	lw	a1,-36(s0)
 8000690:	862a                	mv	a2,a0
 8000692:	fe042503          	lw	a0,-32(s0)
 8000696:	fec42623          	sw	a2,-20(s0)
 800069a:	fec42823          	sw	a2,-16(s0)
 800069e:	0015c583          	lbu	a1,1(a1)
 80006a2:	00f5f613          	andi	a2,a1,15
 80006a6:	4585                	li	a1,1
 80006a8:	00c595b3          	sll	a1,a1,a2
 80006ac:	feb42223          	sw	a1,-28(s0)
 80006b0:	feb42a23          	sw	a1,-12(s0)
 80006b4:	e519                	bnez	a0,80006c2 <hal.gpio.Pin.write+0x6e>
 80006b6:	a821                	j	80006ce <hal.gpio.Pin.write+0x7a>
 80006b8:	5082                	lw	ra,32(sp)
 80006ba:	4472                	lw	s0,28(sp)
 80006bc:	02410113          	addi	sp,sp,36
 80006c0:	8082                	ret
 80006c2:	fe442503          	lw	a0,-28(s0)
 80006c6:	fec42583          	lw	a1,-20(s0)
 80006ca:	c988                	sw	a0,16(a1)
 80006cc:	b7f5                	j	80006b8 <hal.gpio.Pin.write+0x64>
 80006ce:	fe442503          	lw	a0,-28(s0)
 80006d2:	fec42583          	lw	a1,-20(s0)
 80006d6:	0542                	slli	a0,a0,0x10
 80006d8:	c988                	sw	a0,16(a1)
 80006da:	bff9                	j	80006b8 <hal.gpio.Pin.write+0x64>

080006dc <periph.registers.gpioA>:
 80006dc:	1161                	addi	sp,sp,-8
 80006de:	c206                	sw	ra,4(sp)
 80006e0:	c022                	sw	s0,0(sp)
 80006e2:	0020                	addi	s0,sp,8
 80006e4:	40011537          	lui	a0,0x40011
 80006e8:	80050513          	addi	a0,a0,-2048 # 40010800 <_ebss+0x200107f4>
 80006ec:	4092                	lw	ra,4(sp)
 80006ee:	4402                	lw	s0,0(sp)
 80006f0:	0121                	addi	sp,sp,8
 80006f2:	8082                	ret

080006f4 <periph.registers.gpioC>:
 80006f4:	1161                	addi	sp,sp,-8
 80006f6:	c206                	sw	ra,4(sp)
 80006f8:	c022                	sw	s0,0(sp)
 80006fa:	0020                	addi	s0,sp,8
 80006fc:	40011537          	lui	a0,0x40011
 8000700:	4092                	lw	ra,4(sp)
 8000702:	4402                	lw	s0,0(sp)
 8000704:	0121                	addi	sp,sp,8
 8000706:	8082                	ret

08000708 <periph.registers.gpioD>:
 8000708:	1161                	addi	sp,sp,-8
 800070a:	c206                	sw	ra,4(sp)
 800070c:	c022                	sw	s0,0(sp)
 800070e:	0020                	addi	s0,sp,8
 8000710:	40011537          	lui	a0,0x40011
 8000714:	40050513          	addi	a0,a0,1024 # 40011400 <_ebss+0x200113f4>
 8000718:	4092                	lw	ra,4(sp)
 800071a:	4402                	lw	s0,0(sp)
 800071c:	0121                	addi	sp,sp,8
 800071e:	8082                	ret

08000720 <__udivsi3>:
 8000720:	1161                	addi	sp,sp,-8
 8000722:	c206                	sw	ra,4(sp)
 8000724:	c022                	sw	s0,0(sp)
 8000726:	0020                	addi	s0,sp,8
 8000728:	4601                	li	a2,0
 800072a:	c1e5                	beqz	a1,800080a <__udivsi3+0xea>
 800072c:	cd79                	beqz	a0,800080a <__udivsi3+0xea>
 800072e:	02000613          	li	a2,32
 8000732:	02000693          	li	a3,32
 8000736:	c1b5                	beqz	a1,800079a <__udivsi3+0x7a>
 8000738:	0015d693          	srli	a3,a1,0x1
 800073c:	55555737          	lui	a4,0x55555
 8000740:	8ecd                	or	a3,a3,a1
 8000742:	55570713          	addi	a4,a4,1365 # 55555555 <_ebss+0x35555549>
 8000746:	0026d793          	srli	a5,a3,0x2
 800074a:	8edd                	or	a3,a3,a5
 800074c:	0046d793          	srli	a5,a3,0x4
 8000750:	8edd                	or	a3,a3,a5
 8000752:	0086d793          	srli	a5,a3,0x8
 8000756:	8edd                	or	a3,a3,a5
 8000758:	0106d793          	srli	a5,a3,0x10
 800075c:	8edd                	or	a3,a3,a5
 800075e:	fff6c693          	not	a3,a3
 8000762:	0016d793          	srli	a5,a3,0x1
 8000766:	8f7d                	and	a4,a4,a5
 8000768:	333337b7          	lui	a5,0x33333
 800076c:	33378793          	addi	a5,a5,819 # 33333333 <_ebss+0x13333327>
 8000770:	8e99                	sub	a3,a3,a4
 8000772:	00f6f733          	and	a4,a3,a5
 8000776:	8289                	srli	a3,a3,0x2
 8000778:	8efd                	and	a3,a3,a5
 800077a:	0f0f17b7          	lui	a5,0xf0f1
 800077e:	96ba                	add	a3,a3,a4
 8000780:	0046d713          	srli	a4,a3,0x4
 8000784:	96ba                	add	a3,a3,a4
 8000786:	f0f78713          	addi	a4,a5,-241 # f0f0f0f <_sidata+0x70f0667>
 800078a:	8ef9                	and	a3,a3,a4
 800078c:	00869713          	slli	a4,a3,0x8
 8000790:	96ba                	add	a3,a3,a4
 8000792:	01069713          	slli	a4,a3,0x10
 8000796:	96ba                	add	a3,a3,a4
 8000798:	82e1                	srli	a3,a3,0x18
 800079a:	c135                	beqz	a0,80007fe <__udivsi3+0xde>
 800079c:	00155613          	srli	a2,a0,0x1
 80007a0:	55555737          	lui	a4,0x55555
 80007a4:	8e49                	or	a2,a2,a0
 80007a6:	55570713          	addi	a4,a4,1365 # 55555555 <_ebss+0x35555549>
 80007aa:	00265793          	srli	a5,a2,0x2
 80007ae:	8e5d                	or	a2,a2,a5
 80007b0:	00465793          	srli	a5,a2,0x4
 80007b4:	8e5d                	or	a2,a2,a5
 80007b6:	00865793          	srli	a5,a2,0x8
 80007ba:	8e5d                	or	a2,a2,a5
 80007bc:	01065793          	srli	a5,a2,0x10
 80007c0:	8e5d                	or	a2,a2,a5
 80007c2:	fff64613          	not	a2,a2
 80007c6:	00165793          	srli	a5,a2,0x1
 80007ca:	8f7d                	and	a4,a4,a5
 80007cc:	333337b7          	lui	a5,0x33333
 80007d0:	33378793          	addi	a5,a5,819 # 33333333 <_ebss+0x13333327>
 80007d4:	8e19                	sub	a2,a2,a4
 80007d6:	00f67733          	and	a4,a2,a5
 80007da:	8209                	srli	a2,a2,0x2
 80007dc:	8e7d                	and	a2,a2,a5
 80007de:	0f0f17b7          	lui	a5,0xf0f1
 80007e2:	963a                	add	a2,a2,a4
 80007e4:	00465713          	srli	a4,a2,0x4
 80007e8:	963a                	add	a2,a2,a4
 80007ea:	f0f78713          	addi	a4,a5,-241 # f0f0f0f <_sidata+0x70f0667>
 80007ee:	8e79                	and	a2,a2,a4
 80007f0:	00861713          	slli	a4,a2,0x8
 80007f4:	963a                	add	a2,a2,a4
 80007f6:	01061713          	slli	a4,a2,0x10
 80007fa:	963a                	add	a2,a2,a4
 80007fc:	8261                	srli	a2,a2,0x18
 80007fe:	40c687b3          	sub	a5,a3,a2
 8000802:	477d                	li	a4,31
 8000804:	00f77863          	bgeu	a4,a5,8000814 <__udivsi3+0xf4>
 8000808:	4601                	li	a2,0
 800080a:	8532                	mv	a0,a2
 800080c:	4092                	lw	ra,4(sp)
 800080e:	4402                	lw	s0,0(sp)
 8000810:	0121                	addi	sp,sp,8
 8000812:	8082                	ret
 8000814:	00e79663          	bne	a5,a4,8000820 <__udivsi3+0x100>
 8000818:	4092                	lw	ra,4(sp)
 800081a:	4402                	lw	s0,0(sp)
 800081c:	0121                	addi	sp,sp,8
 800081e:	8082                	ret
 8000820:	4701                	li	a4,0
 8000822:	00178293          	addi	t0,a5,1
 8000826:	01f7c793          	xori	a5,a5,31
 800082a:	00f517b3          	sll	a5,a0,a5
 800082e:	00555533          	srl	a0,a0,t0
 8000832:	fff6c693          	not	a3,a3
 8000836:	9636                	add	a2,a2,a3
 8000838:	01f7d693          	srli	a3,a5,0x1f
 800083c:	0506                	slli	a0,a0,0x1
 800083e:	0786                	slli	a5,a5,0x1
 8000840:	8d55                	or	a0,a0,a3
 8000842:	8fd9                	or	a5,a5,a4
 8000844:	fff54693          	not	a3,a0
 8000848:	96ae                	add	a3,a3,a1
 800084a:	01f6d713          	srli	a4,a3,0x1f
 800084e:	86fd                	srai	a3,a3,0x1f
 8000850:	8eed                	and	a3,a3,a1
 8000852:	0605                	addi	a2,a2,1
 8000854:	8d15                	sub	a0,a0,a3
 8000856:	f26d                	bnez	a2,8000838 <__udivsi3+0x118>
 8000858:	00179613          	slli	a2,a5,0x1
 800085c:	00e66533          	or	a0,a2,a4
 8000860:	4092                	lw	ra,4(sp)
 8000862:	4402                	lw	s0,0(sp)
 8000864:	0121                	addi	sp,sp,8
 8000866:	8082                	ret

08000868 <__anon_2776>:
 8000868:	6e69 6574 6567 2072 766f 7265 6c66 776f     integer overflow
	...

08000879 <__anon_5636>:
 8000879:	7773 7469 6863 6f20 206e 6f63 7272 7075     switch on corrup
 8000889:	2074 6176 756c 0065                         t value.

08000891 <__anon_2330>:
 8000891:	6964 6976 6973 6e6f 6220 2079 657a 6f72     division by zero
 80008a1:	0000 0000 dc6c                               ....l..
